ccopy_reg
_reconstructor
p1
(cargparse
Namespace
p2
c__builtin__
object
p3
NtRp4
(dp5
S'num_epochs'
p6
I10000
sS'rnncell'
p7
S'lstm'
p8
sS'rnn_size'
p9
I256
sS'embedding_size'
p10
I128
sS'data_dir'
p11
S'./data/luxun/'
p12
sS'vocab_size'
p13
I5783
sS'grad_clip'
p14
F200
sS'save_dir'
p15
S'./save/atten/'
p16
sS'num_trainable_params'
p17
cnumpy.core.multiarray
scalar
p18
(cnumpy
dtype
p19
(S'i8'
I0
I1
tRp20
(I3
S'<'
NNNI-1
I-1
I0
tbS'\xd7\xda)\x00\x00\x00\x00\x00'
tRp21
sS'seq_length'
p22
I32
sS'batch_size'
p23
I64
sS'keep'
p24
I00
sS'learning_rate'
p25
F0.01
sS'decay_rate'
p26
F0.94999999999999996
sS'log_dir'
p27
S'./log/atten/'
p28
sS'attention'
p29
I01
sS'num_layers'
p30
I1
sS'model'
p31
S'seq2seq_rnn'
p32
sS'num_all_params'
p33
g18
(g19
(S'f8'
I0
I1
tRp34
(I3
S'<'
NNNI-1
I-1
I0
tbS'\x00\x00\x00\x00"d_A'
tRp35
sS'save_every'
p36
I1000
sb.