((dp1
V\u8000
I1592
sV\u6d89
I2108
sV\u8c08
I539
sV\u4f0a
I1186
sV\u8599
I5195
sV\u4e9f
I4416
sV\u6d1e
I1100
sV\u54a3
I4142
sV\u7322
I4143
sV\u7f2a
I3654
sV\u6cb3
I289
sV\u4e34
I889
sV\u72b7
I4619
sV\u5438
I869
sV\u78bb
I5196
sV\u5a3c
I2981
sV\u7ebf
I696
sV\u53cd
I302
sV\u724c
I1024
sV\u96cf
I3152
sV\u59d1
I728
sV\u7850
I4620
sV\u5362
I1635
sV\u77e5
I97
sV\u9664
I775
sV\u5f6a
I3282
sV\u95f9
I499
sV\u5eff
I3283
sV\u8986
I1973
sV\u5e94
I325
sV\u881b
I5197
sV\u5121
I3655
sV\u76a4
I4855
sV\u5d29
I2181
sV\u82ac
I2793
sV\u51b6
I3240
sV\u9abc
I3741
sV\u8d49
I5198
sV\u6e5f
I5199
sV\u56e4
I3818
sV\u5ce8
I3592
sV\u62ec
I1974
sV\u866f
I5200
sV\u6ef4
I1330
sV\u987b
I668
sV\u5b7d
I2633
sV\u9e7f
I2391
sV\u6c89
I486
sV\u4e0a
I17
sV\u728d
I4621
sV\u540e
I51
sV\u7891
I1975
sV\u9910
I2172
sV\u6016
I1995
sV\u8499
I980
sV\u7826
I4622
sV\u67af
I1389
sV\u4f34
I1485
sV\u73b7
I4144
sV\u9036
I4417
sV\u79bb
I399
sV\u7fbf
I2218
sV\u58d1
I4145
sV\u7950
I5201
sV\u7f54
I4623
sV\u76e5
I5202
sV\u88f1
I4624
sV\u53f7
I551
sV\u7076
I1714
sV\u59fb
I2608
sV\u5fff
I2816
sV\u8282
I651
sV\u538c
I1308
sV\u9a92
I4856
sV\u8317
I5203
sV\u891b
I3925
sV\u5021
I1805
sV\u71a0
I2962
sV\u9523
I2082
sV\u7a3d
I2407
sV\u62c2
I2408
sV\u514b
I831
sV\u574f
I655
sV\u9e55
I5204
sV\u80d6
I1312
sV\u51e0
I122
sV\u5de8
I1120
sV\u8d73
I3926
sV\u9f7f
I1324
sV\u8200
I3210
sV\u8404
I2893
sV\u6316
I1996
sV\u56a3
I2609
sV\u7b26
I2014
sV\u62ab
I1623
sV\u872e
I4146
sV\u70b7
I4625
sV\u953a
I4626
sV\u9f3e
I3241
sV\u6240
I70
sV\u6444
I2708
sV\u704c
I1852
sV\u67d9
I4418
sV\u4f5e
I4419
sV\u5162
I3284
sV\u5b66
I80
sV\u7fe9
I3007
sV\u81ed
I1155
sV\u8bf1
I2159
sV\u8df5
I2558
sV\u7f7e
I5205
sV\u6603
I4857
sV\u6807
I1140
sV\u4e88
I2070
sV\u8d8a
I608
sV\u740f
I5206
sV\u9992
I2655
sV\u5c94
I3153
sV\u8017
I2542
sV\u8c1f
I3119
sV\u5321
I4264
sV\u5f29
I3539
sV\u6d35
I4027
sV\u61c2
I756
sV\u914d
I1039
sV\u9b51
I4858
sV\u79d2
I2559
sV\u6a5b
I4859
sV\u6c5f
I519
sV\u8fde
I238
sV\u7663
I4420
sV\u826b
I5207
sV\u60ec
I4860
sV\u76f8
I209
sV\u9a7b
I2543
sV\u597d
I56
sV\u9c7f
I4421
sV\u8300
I3927
sV\u6485
I2963
sV\u6e89
I4422
sV\u560e
I2675
sV\u7a91
I3742
sV\u7c95
I5208
sV\u6216
I234
sV\u57a3
I3540
sV\u94a5
I2341
sV\u7c2a
I3541
sV\u65af
I673
sV\u6fb3
I3819
sV\u593c
I3656
sV\u9e3e
I4423
sV\u89c7
I5209
sV\u714c
I2279
sV\u7b50
I2634
sV\u66d9
I3820
sV\u4e5e
I2342
sV\u72e1
I2544
sV\u7ee9
I2424
sV\u80ed
I3657
sV\u666e
I1199
sV\u4ff3
I4627
sV\u96f9
I4147
sV\u5bfb
I694
sV\u8082
I5210
sV\u4f88
I3383
sV\u518c
I2109
sV\u750f
I5211
sV\u7f13
I1094
sV\u699c
I2610
sV\u8d1f
I1218
sV\u75a4
I2676
sV\u6a31
I3184
sV\u8bb0
I193
sV\u8db4
I1624
sV\u5ebe
I5212
sV\u6ac6
I5213
sV\u8e49
I5214
sV\u6cca
I2520
sV\u904d
I942
sV\u76ce
I4028
sV\u5f53
I116
sV\u53e0
I2205
sV\u7763
I1813
sV\u90e2
I4029
sV\u55e4
I2458
sV\u9ae6
I3185
sV\u836b
I1251
sV\u8f73
I3485
sV\u9177
I1730
sV\u6989
I4861
sV\u7b95
I3040
sV\u631a
I3542
sV\u5ea7
I1083
sV\u68b3
I2146
sV\u9536
I5215
sV\u7cbb
I5216
sV\u7abf
I3075
sV\u80c3
I1926
sV\u6848
I1040
sV\u764c
I4030
sV\u98d3
I4628
sV\u8058
I2922
sV\u73e5
I5217
sV\u9264
I5218
sV\u79e9
I3008
sV\u5b6a
I4424
sV\u8bf5
I2499
sV\u5cfb
I3242
sV\u6003
I3821
sV\u8782
I4148
sV\u5c90
I4862
sV\u8c1b
I2870
sV\u6e9c
I1135
sV\u5929
I66
sV\u672d
I2844
sV\u90b8
I4629
sV\u9ebc
I2964
sV\u59be
I3009
sV\u6dc6
I3928
sV\u544b
I4863
sV\u71ce
I3335
sV\u6657
I4864
sV\u6c5b
I4865
sV\u89de
I4630
sV\u52e4
I2440
sV\u846b
I2481
sV\u826f
I905
sV\u6cf0
I721
sV\u9677
I1517
sV\u5179
I2441
sV\u7efc
I3041
sV\u9a7f
I3929
sV\u8304
I3154
sV\u7c91
I4866
sV\u7a95
I4867
sV\u621a
I1927
sV\u94a1
I4425
sV\u7622
I3593
sV\u7c26
I5219
sV\u65ab
I3594
sV\u5f3c
I3822
sV\u81c3
I4426
sV\u8fc7
I40
sV\u7b54
I674
sV\u8158
I4868
sV\u9560
I5220
sV\u5662
I1762
sV\u5c66
I5221
sV\u9968
I3930
sV\u5a6a
I3285
sV\u86ed
I4031
sV\u6e72
I4869
sV\u7476
I3486
sV\u727a
I1965
sV\u5bff
I1893
sV\u8682
I2845
sV\u8a8a
I4265
sV\u9e92
I4870
sV\u8717
I3487
sV\u4e1d
I618
sV\u6f9c
I3384
sV\u5421
I4871
sV\u662d
I2266
sV\u4eb2
I114
sV\u6a35
I3433
sV\u8bb4
I3595
sV\u964d
I1347
sV\u534f
I1928
sV\u5953
I3596
sV\u7ed2
I2425
sV\u84d6
I4631
sV\u4fdc
I5222
sV\u53e4
I324
sV\u59e8
I2131
sV\u67ec
I4266
sV\u836f
I660
sV\u5e7d
I1313
sV\u7ffc
I1390
sV\u6781
I497
sV\u8004
I3931
sV\u6b89
I3434
sV\u7f91
I5223
sV\u4e9b
I98
sV\u611a
I1829
sV\u52a3
I2195
sV\u7f26
I4032
sV\u60af
I3042
sV\u4e30
I1505
sV\u8d32
I3932
sV\u5238
I3385
sV\u5c3c
I1358
sV\u90cf
I5224
sV\u5fd1
I3488
sV\u9ad3
I3076
sV\u8258
I3155
sV\u6ddd
I4632
sV\u71e5
I2500
sV\u5f66
I3435
sV\u7be9
I5225
sV\u636e
I616
sV\u717a
I4633
sV\u7b7e
I2132
sV\u8f86
I1364
sV\u548c
I42
sV\u5e90
I2982
sV\u6298
I1109
sV\u7aa8
I3211
sV\u6f31
I3386
sV\u88b4
I5226
sV\u7339
I3823
sV\u5bbe
I1679
sV\u954d
I5227
sV\u504f
I769
sV\u9955
I3387
sV\u6e5b
I4149
sV\u8bde
I2373
sV\u56e0
I141
sV\u866b
I1265
sV\u72f8
I1508
sV\u987f
I1088
sV\u8700
I2983
sV\u950c
I4634
sV\u520e
I4267
sV\u9f10
I4872
sV\u8299
I4150
sV\u4f9b
I1249
sV\u7422
I3286
sV\u67ab
I3543
sV\u4f30
I2280
sV\u6bb3
I2521
sV\u8c32
I5228
sV\u9636
I524
sV\u6740
I432
sV\u54cd
I349
sV\u754c
I358
sV\u91cf
I658
sV\u7f50
I1953
sV\u58d5
I3287
sV\u62d9
I2160
sV\u8d5c
I4873
sV\u9760
I742
sV\u5462
I250
sV\u626e
I1861
sV\u6c72
I3597
sV\u55f7
I2753
sV\u59ff
I1671
sV\u8482
I2677
sV\u6d07
I4151
sV\u770b
I35
sV\u5f90
I1348
sV\u8517
I4152
sV\u6398
I2239
sV\u5621
I4268
sV\u77a0
I4874
sV\u5a29
I4427
sV\u642d
I1522
sV\u8fb0
I2219
sV\u7239
I456
sV\u5abe
I4033
sV\u64c2
I3077
sV\u72ce
I4635
sV\u9e51
I4153
sV\u86d6
I5229
sV\u80da
I4034
sV\u57e0
I3658
sV\u94e2
I4269
sV\u51e4
I872
sV\u5be8
I2817
sV\u65ec
I2794
sV\u4e71
I496
sV\u997f
I1482
sV\u7b8d
I3544
sV\u5d0e
I3598
sV\u9010
I1338
sV\u9614
I1254
sV\u5ca3
I5230
sV\u7126
I1291
sV\u6eaf
I3933
sV\u8d2e
I4270
sV\u5c38
I1019
sV\u70bb
I5231
sV\u76bf
I4035
sV\u953e
I5232
sV\u6840
I3489
sV\u4fc5
I5233
sV\u82c7
I2251
sV\u6448
I4036
sV\u9ecf
I2923
sV\u51d1
I2022
sV\u57d5
I5234
sV\u7654
I5235
sV\u6dd9
I4428
sV\u4f5a
I3659
sV\u7fe5
I5236
sV\u9e64
I2709
sV\u9468
I5237
sV\u576a
I4271
sV\u8bed
I247
sV\u6d6e
I1175
sV\u50fb
I2635
sV\u56ff
I4429
sV\u8186
I5238
sV\u5f25
I1876
sV\u7ea4
I2710
sV\u74a8
I3824
sV\u6735
I750
sV\u86b4
I5239
sV\u9cb8
I4875
sV\u55be
I4876
sV\u8941
I4430
sV\u6bc2
I5240
sV\u8549
I3436
sV\u5453
I3825
sV\u665f
I5241
sV\u7267
I2028
sV\u54e8
I1976
sV\u886b
I1562
sV\u60f0
I3243
sV\u8473
I5242
sV\u66f4
I294
sV\u9a77
I4877
sV\u72fc
I883
sV\u6881
I881
sV\u6e85
I1911
sV\u7a8d
I3010
sV\u5212
I1300
sV\u6816
I3120
sV\u6e1a
I4431
sV\u829d
I2984
sV\u641e
I1894
sV\u98a1
I4878
sV\u94a9
I1792
sV\u762a
I2818
sV\u8c2e
I4636
sV\u9e3a
I5243
sV\u77bf
I3826
sV\u8dc3
I1655
sV\u4ec5
I1125
sV\u83c7
I3212
sV\u6548
I1585
sV\u7b4c
I4637
sV\u8d58
I4037
sV\u835c
I4879
sV\u5a62
I3827
sV\u7ee5
I2293
sV\u566a
I3043
sV\u4fef
I2522
sV\u80f1
I4638
sV\u51fb
I707
sV\u747e
I3743
sV\u4f84
I2871
sV\u6307
I219
sV\u8086
I2735
sV\u868a
I2459
sV\u5b8c
I359
sV\u9c8e
I4880
sV\u7513
I4881
sV\u5821
I2161
sV\u7fa4
I511
sV\u5429
I2819
sV\u8bac
I4882
sV\u6635
I3660
sV\u723d
I1895
sV\u60c6
I3661
sV\u594b
I1239
sV\u9655
I2586
sV\u675f
I1266
sV\u5fe4
I4154
sV\u55e8
I2766
sV\u96ea
I547
sV\u6bec
I5244
sV\u8f6f
I1141
sV\u67f4
I1567
sV\u5c79
I3599
sV\u527d
I3437
sV\u6b81
I4432
sV\u8a00
I229
sV\u6d85
I2656
sV\u8c04
I4038
sV\u6789
I2343
sV\u7391
I4883
sV\u5112
I2029
sV\u8f99
I3934
sV\u819d
I1806
sV\u50a7
I5245
sV\u752a
I5246
sV\u5e38
I207
sV\u503c
I1095
sV\u973e
I4433
sV\u9acb
I5247
sV\u784c
I3545
sV\u9ccf
I5248
sV\u53d1
I84
sV\u7be1
I3336
sV\u5962
I2894
sV\u5366
I2657
sV\u77e9
I2409
sV\u9668
I3935
sV\u556a
I1513
sV\u6f6e
I990
sV\u83f1
I4639
sV\u54ff
I5249
sV\u777e
I2985
sV\u7a0b
I1035
sV\u9192
I824
sV\u5494
I3244
sV\u4f19
I741
sV\u6e98
I5250
sV\u821b
I5251
sV\u7aa0
I3744
sV\u9e23
I1132
sV\u7ca4
I3156
sV\u76a8
I5252
sV\u692d
I3546
sV\u4fae
I2294
sV\u82b0
I5253
sV\u5bb6
I43
sV\u9eb8
I3662
sV\u4e43
I1263
sV\u63c6
I3745
sV\u8749
I3157
sV\u5c4f
I2295
sV\u7fce
I4884
sV\u8bd6
I5254
sV\u4ed8
I1470
sV\u625b
I2442
sV\u8dda
I3490
sV\u5ce4
I5255
sV\u95ea
I680
sV\u9877
I2443
sV\u5f79
I2392
sV\u7ef8
I2089
sV\u517d
I1433
sV\u6c85
I4885
sV\u8708
I3828
sV\u788d
I2162
sV\u5012
I200
sV\u9514
I5256
sV\u809d
I2344
sV\u9aa1
I884
sV\u51a7
I5257
sV\u742a
I4155
sV\u6daf
I2872
sV\u8e2e
I4272
sV\u73bb
I1464
sV\u6748
I3186
sV\u7350
I4156
sV\u54d5
I3388
sV\u7554
I2754
sV\u60dd
I5258
sV\u6e6e
I3663
sV\u82f1
I481
sV\u7a76
I635
sV\u53fb
I5259
sV\u90fd
I61
sV\u767e
I343
sV\u8882
I5260
sV\u7b0b
I3011
sV\u5594
I2560
sV\u4e19
I3012
sV\u831b
I5261
sV\u5c25
I3936
sV\u4eae
I448
sV\u4f43
I3245
sV\u68c2
I3438
sV\u62c6
I2182
sV\u7ece
I3246
sV\u4fd8
I3187
sV\u86de
I5262
sV\u7167
I488
sV\u9977
I4434
sV\u957f
I93
sV\u8c00
I4273
sV\u7591
I811
sV\u7f22
I4435
sV\u6cab
I1656
sV\u732a
I283
sV\u7eb7
I1096
sV\u6c40
I4039
sV\u6a44
I3664
sV\u86c7
I1386
sV\u5fcd
I961
sV\u55d1
I3829
sV\u90d3
I4886
sV\u67dd
I5263
sV\u5f62
I474
sV\u5566
I501
sV\u9068
I5264
sV\u8fed
I2611
sV\u696e
I5265
sV\u5ef7
I2529
sV\u52ff
I2444
sV\u5490
I2678
sV\u9792
I4436
sV\u821f
I2873
sV\u8eac
I2679
sV\u96bc
I4640
sV\u8d41
I3491
sV\u6fc2
I4887
sV\u65c6
I5266
sV\u5c4b
I449
sV\u9551
I3937
sV\u8dd6
I5267
sV\u8bda
I1301
sV\u8c6b
I1614
sV\u62f4
I2030
sV\u5979
I64
sV\u76fc
I1830
sV\u6c81
I3337
sV\u6089
I1672
sV\u9510
I2090
sV\u4f97
I4437
sV\u6c16
I3338
sV\u869d
I4888
sV\u59a3
I4889
sV\u9aa5
I4438
sV\u7426
I4274
sV\u722a
I1453
sV\u5938
I1905
sV\u903e
I3746
sV\u6148
I2094
sV\u54d1
I1302
sV\u66dd
I4439
sV\u5e62
I3830
sV\u7ae5
I1279
sV\u5466
I2820
sV\u70e9
I4440
sV\u526a
I1349
sV\u7a7a
I310
sV\u707e
I1877
sV\u5f8c
I4275
sV\u7b0f
I4641
sV\u6998
I4890
sV\u679c
I273
sV\u5a25
I2821
sV\u5029
I2895
sV\u71a8
I4040
sV\u6e2d
I3247
sV\u85b0
I3339
sV\u7839
I5268
sV\u8c41
I2482
sV\u6ec2
I4157
sV\u5d4b
I4891
sV\u62ca
I4642
sV\u76d2
I1586
sV\u655b
I3078
sV\u635f
I1878
sV\u80de
I2110
sV\u9ee2
I4892
sV\u5be4
I5269
sV\u8d6b
I2561
sV\u63f4
I2252
sV\u79f8
I2121
sV\u6389
I530
sV\u7791
I3600
sV\u9610
I3665
sV\u9014
I1442
sV\u631e
I4643
sV\u7d22
I770
sV\u99a5
I3831
sV\u54a7
I1642
sV\u7726
I4041
sV\u68af
I2361
sV\u543c
I1593
sV\u933e
I5270
sV\u6844
I5271
sV\u6248
I4644
sV\u5dcd
I3248
sV\u7c4c
I5272
sV\u7650
I5273
sV\u6bd9
I2041
sV\u7fe1
I4276
sV\u5766
I1997
sV\u6572
I1126
sV\u797a
I1940
sV\u95fd
I4277
sV\u737e
I3666
sV\u818a
I1187
sV\u5c8c
I3601
sV\u8c17
I4278
sV\u7ea0
I2163
sV\u5925
I5274
sV\u6731
I1814
sV\u86b0
I5275
sV\u80b4
I3667
sV\u9ab8
I3158
sV\u8349
I372
sV\u61ca
I2896
sV\u75d2
I1771
sV\u6c57
I896
sV\u89da
I5276
sV\u58e4
I3249
sV\u97e6
I2636
sV\u66f0
I844
sV\u8273
I1731
sV\u60f4
I3288
sV\u907f
I1255
sV\u6885
I1680
sV\u6289
I3832
sV\u7691
I3938
sV\u5412
I5277
sV\u7095
I1407
sV\u5ba3
I787
sV\u55a7
I2483
sV\u7626
I1076
sV\u63b3
I3668
sV\u7db7
I4645
sV\u9e36
I4646
sV\u77bb
I3547
sV\u553c
I5278
sV\u4ec1
I1396
sV\u8bc3
I2612
sV\u7750
I5279
sV\u4e56
I2393
sV\u7ee1
I4893
sV\u72e9
I3747
sV\u5df7
I1460
sV\u51ff
I2637
sV\u727e
I5280
sV\u8c82
I4647
sV\u7f0b
I5281
sV\u9a8e
I4894
sV\u7313
I4279
sV\u659c
I1219
sV\u9b23
I4441
sV\u5229
I490
sV\u6631
I5282
sV\u6035
I4158
sV\u5eb6
I2924
sV\u7a39
I4648
sV\u52be
I4442
sV\u8e41
I4895
sV\u8845
I4280
sV\u60ca
I546
sV\u594f
I1706
sV\u5353
I2587
sV\u82de
I3340
sV\u5fe0
I1476
sV\u53e8
I1941
sV\u6dec
I5283
sV\u547d
I169
sV\u917f
I2694
sV\u9000
I732
sV\u7785
I2307
sV\u9604
I5284
sV\u5f0a
I2562
sV\u820c
I1225
sV\u8e14
I4649
sV\u7116
I4650
sV\u771a
I5285
sV\u5e9f
I1276
sV\u70ab
I2965
sV\u6f2a
I3833
sV\u952e
I2711
sV\u5830
I4896
sV\u8d3e
I2695
sV\u94c3
I1853
sV\u86cf
I5286
sV\u6850
I1715
sV\u6e54
I5287
sV\u5156
I5288
sV\u575a
I930
sV\u7bdd
I3602
sV\u67e5
I993
sV\u8c68
I4281
sV\u8bfd
I3250
sV\u4eff
I568
sV\u5080
I3669
sV\u7403
I1309
sV\u9986
I861
sV\u9f8a
I3492
sV\u660f
I1089
sV\u6c13
I2111
sV\u4e94
I138
sV\u7a9c
I2206
sV\u9e1f
I1127
sV\u60a0
I1441
sV\u66a4
I5289
sV\u6539
I535
sV\u84b8
I1896
sV\u5443
I3834
sV\u73c2
I2460
sV\u79c6
I2394
sV\u65ce
I4282
sV\u6bd2
I1156
sV\u89e6
I1509
sV\u8fea
I3079
sV\u72ec
I676
sV\u7ef4
I968
sV\u8277
I5290
sV\u8e7f
I2173
sV\u5202
I4897
sV\u9704
I3939
sV\u5806
I1009
sV\u7c89
I1082
sV\u8910
I2712
sV\u80a1
I678
sV\u6222
I5291
sV\u63b7
I2253
sV\u8036
I2051
sV\u69bb
I3013
sV\u634c
I4651
sV\u4ed5
I3341
sV\u5c5e
I1057
sV\u8160
I5292
sV\u51eb
I4652
sV\u5df3
I3748
sV\u6076
I614
sV\u667a
I1314
sV\u6c7e
I4898
sV\u5180
I3251
sV\u5784
I3439
sV\u9886
I515
sV\u4f94
I5293
sV\u6da8
I2345
sV\u5ab2
I4283
sV\u6a3d
I4899
sV\u8bbc
I3289
sV\u9041
I3493
sV\u5543
I2296
sV\u72c2
I862
sV\u9645
I1104
sV\u7eca
I2925
sV\u64ce
I2897
sV\u7357
I4653
sV\u9cde
I3014
sV\u6563
I526
sV\u6b67
I3342
sV\u79f0
I436
sV\u8377
I1912
sV\u897b
I4443
sV\u8f7f
I1365
sV\u800c
I49
sV\u6d95
I2638
sV\u7316
I3494
sV\u5a9b
I4654
sV\u751a
I771
sV\u8fa9
I1294
sV\u6d2a
I484
sV\u7eb3
I1486
sV\u5c34
I2898
sV\u8336
I963
sV\u6cbf
I1162
sV\u55c5
I1493
sV\u7444
I4655
sV\u82cb
I4900
sV\u6a50
I3159
sV\u6c54
I4656
sV\u5356
I724
sV\u63e1
I1414
sV\u65e5
I78
sV\u6376
I3290
sV\u87f9
I2658
sV\u5484
I4159
sV\u640f
I2680
sV\u9017
I2426
sV\u789c
I4444
sV\u62a0
I3188
sV\u64a4
I2133
sV\u57ae
I3603
sV\u7b31
I4901
sV\u9ab0
I4902
sV\u59b2
I3670
sV\u693d
I4445
sV\u88bc
I5294
sV\u7bc6
I3835
sV\u4e53
I3940
sV\u93d6
I5295
sV\u6867
I4042
sV\u8be6
I1747
sV\u4ee8
I4284
sV\u8dea
I1393
sV\u516d
I252
sV\u70ec
I2427
sV\u5b71
I4285
sV\u9e73
I4446
sV\u7281
I1942
sV\u9504
I2822
sV\u5c0a
I1307
sV\u608d
I2966
sV\u5197
I4657
sV\u9699
I2374
sV\u5b9b
I450
sV\u989d
I1572
sV\u82a1
I4658
sV\u73ab
I2823
sV\u6c2a
I5296
sV\u75af
I991
sV\u962e
I1233
sV\u5d34
I4286
sV\u8236
I5297
sV\u6dbf
I4447
sV\u5ec9
I2410
sV\u614c
I1465
sV\u85cf
I921
sV\u6d54
I4903
sV\u5256
I2681
sV\u8360
I4043
sV\u8564
I5298
sV\u6ee9
I1618
sV\u8f68
I2659
sV\u53eb
I165
sV\u90ed
I1936
sV\u55ef
I2874
sV\u766e
I5299
sV\u6276
I1342
sV\u86f9
I4448
sV\u647a
I4287
sV\u6e7e
I1619
sV\u9082
I4904
sV\u5584
I933
sV\u9a86
I3671
sV\u5f88
I139
sV\u6f13
I2682
sV\u8892
I3044
sV\u63a0
I2736
sV\u65a4
I1256
sV\u683d
I2229
sV\u70c2
I854
sV\u5947
I609
sV\u9e49
I4449
sV\u7cca
I976
sV\u4f53
I230
sV\u68d2
I1943
sV\u8c55
I3836
sV\u7b5b
I2926
sV\u59dc
I2613
sV\u4fe8
I3213
sV\u956f
I2927
sV\u5d06
I5300
sV\u8c10
I2767
sV\u5c9b
I2428
sV\u5a9f
I4905
sV\u4ea7
I326
sV\u562c
I3837
sV\u72af
I1236
sV\u78b3
I5301
sV\u5a34
I3749
sV\u6cbb
I640
sV\u664c
I2545
sV\u82cf
I776
sV\u6c50
I3750
sV\u5556
I5302
sV\u535a
I1375
sV\u8868
I218
sV\u97ed
I3440
sV\u716e
I1966
sV\u58f3
I1707
sV\u7f72
I1558
sV\u637a
I3941
sV\u8ffd
I910
sV\u5480
I2795
sV\u620f
I687
sV\u6813
I2375
sV\u9617
I4450
sV\u62a4
I1020
sV\u68a8
I2254
sV\u9541
I4906
sV\u5043
I3751
sV\u6fd2
I4160
sV\u6063
I3752
sV\u946b
I5303
sV\u5b75
I3838
sV\u9500
I1782
sV\u5c06
I156
sV\u7889
I4907
sV\u9e9d
I4451
sV\u84a1
I4908
sV\u82a5
I4161
sV\u4fa7
I1243
sV\u75ab
I3672
sV\u6a2a
I1084
sV\u73af
I1097
sV\u902e
I3189
sV\u79b3
I4909
sV\u9e32
I5304
sV\u5b34
I5305
sV\u67b7
I3942
sV\u4f3c
I248
sV\u6bbf
I1862
sV\u54c1
I542
sV\u7540
I3495
sV\u7948
I3121
sV\u674c
I4910
sV\u83cf
I4911
sV\u70d9
I2768
sV\u7edd
I712
sV\u585e
I1128
sV\u62e5
I965
sV\u8364
I3496
sV\u55eb
I4452
sV\u53ef
I63
sV\u5580
I3080
sV\u5384
I3252
sV\u7f07
I4659
sV\u5988
I717
sV\u9a8a
I4912
sV\u5019
I251
sV\u5e1d
I607
sV\u9b1f
I4660
sV\u69a8
I3548
sV\u5143
I534
sV\u76c2
I3160
sV\u98de
I389
sV\u5c71
I281
sV\u5a75
I4661
sV\u9600
I1594
sV\u9004
I4662
sV\u840c
I2308
sV\u5497
I4162
sV\u711a
I2309
sV\u589f
I3081
sV\u7b1e
I4663
sV\u8ba9
I163
sV\u542c
I155
sV\u70af
I3389
sV\u7ab3
I4453
sV\u64b7
I3943
sV\u6ebb
I4664
sV\u86cb
I1121
sV\u4fd1
I4454
sV\u6854
I3604
sV\u515a
I525
sV\u56eb
I4288
sV\u95ed
I1192
sV\u4efb
I377
sV\u7c07
I2071
sV\u998a
I3839
sV\u600f
I3291
sV\u838e
I2530
sV\u5319
I2321
sV\u7c9c
I4913
sV\u8c27
I3343
sV\u752d
I2614
sV\u53ae
I2683
sV\u7f31
I4289
sV\u6339
I5306
sV\u82b8
I3549
sV\u6d3d
I3344
sV\u5243
I2588
sV\u75c2
I4163
sV\u9b49
I5307
sV\u63ce
I4164
sV\u6dd2
I5308
sV\u52d8
I4044
sV\u6263
I1756
sV\u8fe6
I2796
sV\u556d
I4455
sV\u906f
I5309
sV\u5f71
I428
sV\u7ef0
I2346
sV\u9a73
I2207
sV\u6cfc
I1793
sV\u9700
I1073
sV\u7085
I5310
sV\u5e06
I2986
sV\u701a
I3753
sV\u80a5
I1284
sV\u682a
I1977
sV\u552c
I2639
sV\u5934
I45
sV\u7740
I16
sV\u5ac9
I2615
sV\u87cb
I3754
sV\u654c
I1122
sV\u4ed1
I3253
sV\u8bd3
I4914
sV\u6954
I3944
sV\u72d9
I5311
sV\u505a
I175
sV\u8760
I3550
sV\u4e66
I120
sV\u94ed
I2052
sV\u51ef
I2183
sV\u9ef1
I3840
sV\u6676
I1698
sV\u82f9
I3551
sV\u607a
I3673
sV\u5b88
I1170
sV\u670b
I755
sV\u988a
I2696
sV\u610f
I133
sV\u5219
I390
sV\u5c1d
I1237
sV\u8d27
I1339
sV\u8dbc
I4915
sV\u5343
I538
sV\u5d47
I2347
sV\u7ec6
I561
sV\u78ca
I4165
sV\u62ce
I3214
sV\u8e51
I3292
sV\u53d8
I300
sV\u795f
I2713
sV\u6363
I1954
sV\u7ff0
I2255
sV\u8f7b
I356
sV\u6dfc
I4665
sV\u897f
I128
sV\u7981
I1074
sV\u5106
I4045
sV\u6b8d
I4666
sV\u8010
I1604
sV\u6795
I1839
sV\u7f1a
I2797
sV\u6b22
I409
sV\u6126
I4916
sV\u672a
I320
sV\u7eaf
I1271
sV\u5634
I296
sV\u8936
I4166
sV\u60bb
I3293
sV\u7840
I2348
sV\u5fc5
I360
sV\u55c9
I5312
sV\u6050
I808
sV\u84d3
I4456
sV\u6654
I4457
sV\u5956
I1987
sV\u65e9
I334
sV\u58eb
I303
sV\u7d6e
I2563
sV\u97f5
I2564
sV\u8df9
I4667
sV\u6f7a
I3294
sV\u83fd
I5313
sV\u5880
I5314
sV\u5e84
I96
sV\u680b
I4046
sV\u6413
I2184
sV\u7c98
I1998
sV\u901b
I2616
sV\u531d
I3441
sV\u961f
I350
sV\u8c23
I1615
sV\u4f25
I4458
sV\u7735
I4917
sV\u6d39
I5315
sV\u633d
I1807
sV\u9549
I5316
sV\u4e4f
I2031
sV\u8151
I3755
sV\u63d2
I1190
sV\u7a57
I2484
sV\u8be2
I2798
sV\u4ee4
I401
sV\u6267
I1203
sV\u5171
I592
sV\u76f4
I262
sV\u62fc
I2083
sV\u9508
I2640
sV\u8110
I3756
sV\u5b97
I1207
sV\u7816
I1555
sV\u519b
I387
sV\u6026
I3390
sV\u7faf
I5317
sV\u75b3
I5318
sV\u6bb7
I2660
sV\u8e3a
I5319
sV\u58c1
I943
sV\u7940
I2967
sV\u7f44
I3945
sV\u54c9
I1929
sV\u89cb
I5320
sV\u6b4c
I351
sV\u85d3
I3841
sV\u7cd9
I2697
sV\u6ee5
I2928
sV\u8568
I4918
sV\u9aed
I5321
sV\u55f3
I4290
sV\u7272
I1543
sV\u6876
I1763
sV\u9a82
I521
sV\u5f84
I1815
sV\u690b
I3674
sV\u6f0f
I2281
sV\u8292
I2042
sV\u521d
I405
sV\u8d23
I1143
sV\u4e25
I855
sV\u8327
I3215
sV\u52b2
I1372
sV\u97b4
I5322
sV\u8db8
I4919
sV\u4eba
I9
sV\u623d
I4920
sV\u83bc
I5323
sV\u9e45
I2641
sV\u5347
I1147
sV\u76ca
I1539
sV\u4f4f
I205
sV\u62d2
I1937
sV\u94de
I5324
sV\u6d63
I4668
sV\u6367
I1605
sV\u996b
I4669
sV\u9573
I5325
sV\u817b
I2230
sV\u5306
I1325
sV\u4f0e
I3675
sV\u8210
I3122
sV\u9f99
I395
sV\u529b
I208
sV\u8ba1
I677
sV\u5230
I26
sV\u5434
I1101
sV\u4e38
I2395
sV\u62bb
I2929
sV\u8d3a
I2322
sV\u873e
I4921
sV\u5dc5
I4047
sV\u684c
I777
sV\u6454
I1863
sV\u9e58
I5326
sV\u575e
I4459
sV\u6be1
I3015
sV\u67e9
I4048
sV\u7f6e
I1272
sV\u7172
I5327
sV\u95f5
I5328
sV\u8ff9
I1058
sV\u677e
I815
sV\u6c0f
I876
sV\u6613
I719
sV\u709c
I4460
sV\u6ca4
I4167
sV\u8027
I3757
sV\u66a8
I3946
sV\u5fae
I628
sV\u51b2
I632
sV\u7535
I408
sV\u80bc
I5329
sV\u9b41
I3045
sV\u5047
I690
sV\u75ca
I4670
sV\u61d2
I1649
sV\u725b
I158
sV\u745f
I2240
sV\u6067
I5330
sV\u78ec
I3947
sV\u5371
I1568
sV\u72f0
I2875
sV\u5575
I4168
sV\u74f4
I5331
sV\u8877
I2769
sV\u7a81
I772
sV\u5802
I621
sV\u5206
I180
sV\u540a
I1532
sV\u4e0e
I172
sV\u6291
I2241
sV\u6495
I1540
sV\u5997
I4291
sV\u559f
I3842
sV\u4fa3
I2531
sV\u86a9
I3046
sV\u7bab
I4461
sV\u642a
I3948
sV\u592c
I5332
sV\u77b3
I1864
sV\u69b7
I4922
sV\u4f38
I795
sV\u5ac1
I1434
sV\u91c7
I1315
sV\u8bcb
I4462
sV\u6350
I2485
sV\u7ed9
I125
sV\u6ce5
I892
sV\u8d64
I1144
sV\u66e9
I5333
sV\u80fd
I88
sV\u667e
I3016
sV\u9882
I1913
sV\u948a
I1280
sV\u951f
I3552
sV\u6da4
I3676
sV\u782d
I4923
sV\u7231
I176
sV\u50b2
I1914
sV\u7435
I3843
sV\u884d
I2256
sV\u5fd8
I629
sV\u88e2
I3553
sV\u6167
I1483
sV\u82e6
I364
sV\u5475
I1523
sV\u75f4
I1854
sV\u837b
I4671
sV\u5f02
I829
sV\u7b85
I5334
sV\u5506
I4169
sV\u8e0c
I3161
sV\u6591
I1563
sV\u8214
I2032
sV\u5e97
I631
sV\u9999
I459
sV\u549b
I2930
sV\u529f
I799
sV\u8ba5
I2486
sV\u632a
I2501
sV\u992e
I4672
sV\u70b3
I3345
sV\u9732
I866
sV\u6eb7
I4673
sV\u62bf
I3123
sV\u813e
I1716
sV\u5bc5
I2257
sV\u96c7
I2095
sV\u51c9
I853
sV\u4fcd
I5335
sV\u6254
I1204
sV\u5b5a
I2987
sV\u6de1
I958
sV\u4f62
I3844
sV\u95f1
I4924
sV\u4ef7
I1041
sV\u4e8c
I67
sV\u5919
I4292
sV\u7898
I3845
sV\u8627
I4925
sV\u60a8
I994
sV\u7f2d
I2824
sV\u59ae
I4674
sV\u7531
I332
sV\u6939
I4675
sV\u673d
I2310
sV\u9b45
I2846
sV\u5647
I4926
sV\u9149
I3295
sV\u73ca
I3082
sV\u69ce
I5336
sV\u745b
I5337
sV\u725f
I3124
sV\u6863
I2847
sV\u8fe2
I3758
sV\u5f6d
I2988
sV\u9a6f
I2876
sV\u5375
I2220
sV\u66fc
I1944
sV\u5e02
I503
sV\u5406
I2877
sV\u7089
I1748
sV\u520a
I304
sV\u6491
I1775
sV\u6295
I938
sV\u8314
I4170
sV\u5f97
I33
sV\u7a1a
I2057
sV\u539f
I264
sV\u80a9
I1158
sV\u622a
I1606
sV\u5530
I3605
sV\u71b3
I4463
sV\u9632
I1533
sV\u5cc1
I5338
sV\u8dcb
I2617
sV\u4ecd
I758
sV\u8bcf
I3554
sV\u78d9
I4464
sV\u5a5a
I934
sV\u6ce1
I1211
sV\u8d60
I2231
sV\u60e9
I2349
sV\u5deb
I3606
sV\u786e
I671
sV\u94f1
I5339
sV\u51f3
I1608
sV\u7672
I4676
sV\u6c76
I2714
sV\u88f9
I1945
sV\u9e82
I4465
sV\u5b84
I5340
sV\u7707
I5341
sV\u5188
I2715
sV\u6d0b
I604
sV\u951b
I4677
sV\u61a8
I3677
sV\u7431
I4927
sV\u7235
I2848
sV\u6839
I416
sV\u7ec2
I4928
sV\u5747
I2185
sV\u7f57
I444
sV\u9cd6
I2931
sV\u59d8
I4678
sV\u6963
I3846
sV\u84e6
I3346
sV\u5471
I2989
sV\u75f0
I3083
sV\u7f81
I3759
sV\u5d02
I4466
sV\u7985
I2642
sV\u5706
I888
sV\u7389
I913
sV\u8c0c
I4929
sV\u5c97
I2770
sV\u7f16
I420
sV\u731e
I5342
sV\u6726
I2147
sV\u7eab
I4171
sV\u5c2c
I2899
sV\u9532
I4172
sV\u53c9
I2196
sV\u7248
I664
sV\u82d3
I4293
sV\u7bd9
I3847
sV\u595a
I3162
sV\u535e
I5343
sV\u6fe1
I3442
sV\u63e9
I3084
sV\u7b6e
I5344
sV\u7a03
I4679
sV\u7407
I5345
sV\u5288
I1609
sV\u680f
I1587
sV\u7a98
I3391
sV\u749c
I3017
sV\u901f
I1316
sV\u8427
I1518
sV\u62a8
I4294
sV\u96b0
I5346
sV\u6b39
I5347
sV\u4e4b
I29
sV\u8d4d
I4930
sV\u65d2
I4467
sV\u8155
I2487
sV\u5ad8
I4931
sV\u6467
I2932
sV\u9e6b
I5348
sV\u81ea
I53
sV\u5175
I516
sV\u867b
I3848
sV\u6691
I3190
sV\u8114
I5349
sV\u9a99
I5350
sV\u579b
I3047
sV\u781a
I3125
sV\u949d
I3018
sV\u6c22
I4932
sV\u82a9
I5351
sV\u602a
I602
sV\u5730
I27
sV\u73b3
I5352
sV\u58c5
I4295
sV\u52c9
I2311
sV\u6750
I911
sV\u7ad9
I335
sV\u955c
I1050
sV\u6ee1
I272
sV\u62e9
I1988
sV\u8368
I4933
sV\u5feb
I328
sV\u53f3
I870
sV\u627e
I492
sV\u5f80
I217
sV\u7b03
I3254
sV\u5984
I1967
sV\u9686
I1955
sV\u6313
I5353
sV\u541d
I3949
sV\u63a8
I736
sV\u91b4
I4680
sV\u8bb8
I203
sV\u643d
I3191
sV\u9e41
I4681
sV\u76c6
I1435
sV\u70ca
I4934
sV\u8651
I1776
sV\u64d2
I3126
sV\u775b
I425
sV\u98da
I5354
sV\u55dc
I3127
sV\u6b63
I150
sV\u86e6
I5355
sV\u80ea
I5356
sV\u996f
I4468
sV\u8d77
I52
sV\u877b
I4935
sV\u817f
I540
sV\u6302
I705
sV\u908b
I4469
sV\u538d
I3950
sV\u968f
I505
sV\u5f95
I4936
sV\u6297
I886
sV\u9020
I573
sV\u6e34
I1673
sV\u7a3c
I2849
sV\u73cd
I1500
sV\u524c
I3296
sV\u79d1
I1051
sV\u7fd5
I3849
sV\u5e54
I3951
sV\u82d7
I1054
sV\u51e1
I977
sV\u94e3
I5357
sV\u5de9
I3850
sV\u60eb
I3192
sV\u7f6a
I863
sV\u8870
I2197
sV\u6cf3
I3128
sV\u8e74
I4049
sV\u72f7
I4470
sV\u5176
I154
sV\u9a7c
I2799
sV\u7eff
I652
sV\u6684
I3193
sV\u6c88
I2258
sV\u560f
I5358
sV\u5ca8
I2968
sV\u9e3f
I2969
sV\u80c0
I2096
sV\u86c4
I5359
sV\u6a47
I3607
sV\u4fca
I2242
sV\u98d0
I4937
sV\u5bd2
I1110
sV\u9ed4
I3678
sV\u8559
I3851
sV\u4e5f
I22
sV\u9161
I4938
sV\u5463
I4939
sV\u9765
I4682
sV\u7ce8
I4940
sV\u636d
I4683
sV\u8bf2
I4471
sV\u7579
I4296
sV\u918b
I2323
sV\u6e0a
I2565
sV\u5e95
I414
sV\u699b
I4297
sV\u75a3
I5360
sV\u7ba7
I4684
sV\u82ad
I3443
sV\u88b1
I2755
sV\u6930
I4298
sV\u94b9
I3608
sV\u7538
I2546
sV\u59bb
I878
sV\u7b3c
I1657
sV\u6cc9
I1999
sV\u8e4a
I3852
sV\u7ed5
I1373
sV\u665a
I556
sV\u8fdf
I1447
sV\u7262
I1726
sV\u67ef
I3444
sV\u6df3
I3347
sV\u8f74
I3216
sV\u5076
I1269
sV\u79fb
I1415
sV\u8001
I72
sV\u8605
I5361
sV\u6784
I2122
sV\u6d88
I627
sV\u7f94
I3392
sV\u8096
I2850
sV\u51a0
I1819
sV\u98a6
I5362
sV\u64ae
I2716
sV\u5439
I715
sV\u7cbe
I548
sV\u81c0
I2825
sV\u6b47
I1820
sV\u4eca
I268
sV\u54ce
I1757
sV\u4f5f
I4941
sV\u71e0
I5363
sV\u626d
I1487
sV\u5bfc
I620
sV\u4f89
I4685
sV\u518d
I198
sV\u948f
I4942
sV\u9e93
I4472
sV\u6c9f
I1758
sV\u4f1e
I2297
sV\u78a7
I2112
sV\u9e28
I4299
sV\u4eb3
I4943
sV\u8db5
I5364
sV\u6c34
I127
sV\u7638
I2566
sV\u5cbf
I4944
sV\u65c5
I1484
sV\u4e48
I38
sV\u8d4a
I3760
sV\u504c
I3679
sV\u7bd1
I3853
sV\u80d7
I4686
sV\u6f5e
I5365
sV\u55e5
I2826
sV\u98e7
I4945
sV\u70f7
I5366
sV\u987c
I3952
sV\u8301
I4300
sV\u6280
I1840
sV\u6484
I4946
sV\u540f
I2312
sV\u8f9e
I1179
sV\u7321
I4473
sV\u52a0
I348
sV\u7525
I4050
sV\u54a4
I4301
sV\u7f29
I1378
sV\u822b
I5367
sV\u9037
I5368
sV\u5739
I4302
sV\u6643
I1117
sV\u84c4
I2589
sV\u57ce
I307
sV\u59d2
I4687
sV\u9cd4
I4947
sV\u8759
I3680
sV\u72e0
I1379
sV\u74e4
I4948
sV\u87ee
I4949
sV\u7779
I2717
sV\u95fa
I2362
sV\u8783
I2990
sV\u6002
I3681
sV\u4e89
I637
sV\u508d
I2208
sV\u7812
I4474
sV\u8718
I3761
sV\u6b9b
I3953
sV\u6d9f
I3497
sV\u4e1e
I3498
sV\u9524
I3297
sV\u79a7
I3609
sV\u80ad
I5369
sV\u51b7
I394
sV\u7738
I2900
sV\u793c
I723
sV\u64c5
I2771
sV\u5b50
I18
sV\u7cd5
I2523
sV\u8bdb
I2800
sV\u8ddf
I397
sV\u54e5
I522
sV\u65ef
I4950
sV\u8d74
I2396
sV\u997c
I1350
sV\u8201
I5370
sV\u6380
I2298
sV\u8e09
I2756
sV\u6f88
I3019
sV\u900d
I3348
sV\u550f
I3217
sV\u5f13
I1956
sV\u6619
I4475
sV\u681d
I5371
sV\u8e9e
I4688
sV\u7425
I4051
sV\u7e29
I4689
sV\u5fa8
I2801
sV\u832b
I1717
sV\u66ae
I2618
sV\u72b6
I809
sV\u5639
I3445
sV\u9b3b
I5372
sV\u74ba
I4951
sV\u7ebe
I4173
sV\u6743
I917
sV\u8fc8
I2532
sV\u91cc
I24
sV\u754f
I1930
sV\u73e0
I1113
sV\u9e69
I5373
sV\u606d
I1397
sV\u86ee
I2221
sV\u6a71
I3255
sV\u94fa
I1273
sV\u8083
I1946
sV\u8e87
I3499
sV\u9893
I2259
sV\u7f12
I4690
sV\u5b95
I4691
sV\u6697
I570
sV\u8018
I4174
sV\u6c9b
I2757
sV\u7ea7
I489
sV\u87ad
I5374
sV\u8db1
I4952
sV\u6c30
I5375
sV\u8bb5
I4692
sV\u56b7
I1466
sV\u65c1
I734
sV\u77cd
I5376
sV\u564c
I4175
sV\u5c50
I4476
sV\u6556
I3446
sV\u4fdd
I593
sV\u695e
I2970
sV\u55e1
I2000
sV\u7762
I4303
sV\u53e5
I423
sV\u9ee7
I4693
sV\u866c
I4953
sV\u62ef
I3854
sV\u7cfb
I612
sV\u7aff
I2164
sV\u8305
I2350
sV\u6284
I2015
sV\u4e07
I479
sV\u540b
I5377
sV\u970d
I2802
sV\u7325
I4477
sV\u58a8
I820
sV\u79be
I3682
sV\u6043
I3683
sV\u96cc
I3393
sV\u5fd2
I4478
sV\u60d8
I3085
sV\u78e8
I1310
sV\u676d
I2058
sV\u95f6
I4304
sV\u6602
I1777
sV\u8f87
I4954
sV\u6a0a
I3762
sV\u5c91
I4694
sV\u6797
I544
sV\u6d9b
I2232
sV\u672c
I109
sV\u90b9
I2772
sV\u9ebd
I4955
sV\u5bbf
I1689
sV\u62c5
I1025
sV\u8c46
I946
sV\u68c9
I1331
sV\u76cd
I4305
sV\u5b54
I675
sV\u6456
I4695
sV\u8ddb
I3194
sV\u8bdf
I4306
sV\u8d70
I117
sV\u5476
I5378
sV\u9178
I1394
sV\u587e
I3256
sV\u8401
I4307
sV\u8205
I1588
sV\u6988
I4479
sV\u778c
I3394
sV\u530f
I5379
sV\u7b94
I3684
sV\u6e1d
I4956
sV\u889e
I5380
sV\u59a8
I1831
sV\u852b
I3610
sV\u832f
I4308
sV\u5e3d
I1062
sV\u78be
I2243
sV\u6f47
I2567
sV\u89c8
I1285
sV\u754b
I5381
sV\u7953
I5382
sV\u94f6
I1077
sV\u51f8
I2619
sV\u6f06
I1541
sV\u968b
I3349
sV\u730e
I1879
sV\u9a93
I4957
sV\u8c1c
I3555
sV\u5522
I3048
sV\u5f26
I2134
sV\u592a
I160
sV\u642c
I1334
sV\u8fb1
I1636
sV\u7238
I1412
sV\u79d5
I4958
sV\u5854
I1681
sV\u6756
I2299
sV\u88df
I4480
sV\u846c
I1643
sV\u60ef
I1208
sV\u8e70
I4176
sV\u74f7
I2084
sV\u7efb
I4481
sV\u9c7c
I833
sV\u6084
I1087
sV\u500f
I3611
sV\u5a13
I4177
sV\u63ae
I4959
sV\u6db2
I1741
sV\u5339
I1145
sV\u5d3d
I3049
sV\u86c0
I4309
sV\u80c4
I4482
sV\u6c47
I1978
sV\u704f
I5383
sV\u62d8
I2502
sV\u8d5d
I3954
sV\u9761
I3612
sV\u9165
I2851
sV\u70e4
I2568
sV\u656d
I5384
sV\u4ef0
I1064
sV\u97f6
I4310
sV\u6402
I1957
sV\u978b
I800
sV\u680a
I4311
sV\u5e91
I5385
sV\u6597
I587
sV\u9124
I4960
sV\u5e26
I336
sV\u582a
I1947
sV\u55b7
I1367
sV\u60c5
I142
sV\u7ed1
I2033
sV\u78d5
I2186
sV\u5954
I948
sV\u6656
I2737
sV\u8fdb
I153
sV\u605a
I4312
sV\u56e1
I3955
sV\u5ae9
I1906
sV\u8f70
I1690
sV\u5676
I5386
sV\u7ffb
I502
sV\u8005
I102
sV\u809a
I746
sV\u57a0
I4696
sV\u94a2
I1461
sV\u51a4
I1664
sV\u9ea6
I1471
sV\u812f
I2524
sV\u9537
I4697
sV\u5239
I2569
sV\u9f3b
I708
sV\u5c3d
I482
sV\u87c0
I3685
sV\u6343
I5387
sV\u6d47
I2643
sV\u4ec6
I2429
sV\u8bc8
I2901
sV\u5cd2
I2803
sV\u4f5b
I487
sV\u9661
I2933
sV\u9065
I1650
sV\u646d
I5388
sV\u96f6
I1524
sV\u7279
I509
sV\u53f8
I543
sV\u7c7d
I3395
sV\u6106
I4961
sV\u670a
I5389
sV\u9493
I2570
sV\u4f1a
I65
sV\u821c
I2738
sV\u572a
I4698
sV\u8bad
I1477
sV\u87b5
I4699
sV\u7c38
I2590
sV\u50bb
I1527
sV\u69c1
I4052
sV\u8146
I4962
sV\u5654
I3298
sV\u80db
I4053
sV\u86df
I5390
sV\u655e
I2698
sV\u7166
I5391
sV\u5976
I140
sV\u557e
I3350
sV\u580b
I4483
sV\u5e0f
I4054
sV\u5413
I1171
sV\u7f25
I4963
sV\u7529
I2135
sV\u54a8
I5392
sV\u6dae
I4055
sV\u903b
I3257
sV\u963f
I369
sV\u75be
I1958
sV\u6247
I1395
sV\u8d59
I4964
sV\u62dc
I1185
sV\u5c63
I4056
sV\u5267
I971
sV\u83f2
I2267
sV\u6775
I3956
sV\u95fe
I3957
sV\u6006
I3855
sV\u998b
I2991
sV\u660a
I5393
sV\u4e1a
I845
sV\u5026
I2461
sV\u9528
I4178
sV\u4faf
I2313
sV\u80b1
I4057
sV\u86b5
I5394
sV\u6734
I2260
sV\u51bb
I1841
sV\u8046
I2533
sV\u8bd7
I549
sV\u645e
I3556
sV\u54e9
I856
sV\u8b6c
I1727
sV\u6fef
I4965
sV\u8170
I704
sV\u8774
I2034
sV\u7bf7
I2902
sV\u5e7a
I4484
sV\u77ff
I2620
sV\u8e05
I4313
sV\u6f84
I2644
sV\u5f0f
I821
sV\u9615
I5395
sV\u8896
I1370
sV\u90a6
I2462
sV\u6cae
I3447
sV\u5c39
I2992
sV\u7eba
I3218
sV\u523d
I3686
sV\u6d43
I3687
sV\u8fc4
I4058
sV\u52d2
I1658
sV\u6dd8
I2739
sV\u5367
I1246
sV\u75e8
I2903
sV\u53fc
I2411
sV\u94fe
I2488
sV\u8087
I4485
sV\u9a8b
I3856
sV\u598d
I4486
sV\u7f0e
I2699
sV\u6897
I3086
sV\u629b
I2072
sV\u7ea3
I2244
sV\u83b1
I1633
sV\u54bf
I3087
sV\u6bc1
I1317
sV\u6dc5
I2934
sV\u8346
I2904
sV\u854a
I3258
sV\u79cd
I151
sV\u584c
I2043
sV\u73d1
I3688
sV\u5250
I4487
sV\u9152
I286
sV\u75d5
I1544
sV\u5454
I4966
sV\u82db
I3557
sV\u6d5a
I3763
sV\u84df
I4488
sV\u675e
I3351
sV\u5be1
I2430
sV\u7962
I4314
sV\u5de5
I376
sV\u90e7
I4967
sV\u756a
I1821
sV\u886c
I2503
sV\u6cef
I3857
sV\u8270
I2023
sV\u66f3
I2971
sV\u78f7
I3689
sV\u72fb
I4489
sV\u74ff
I4315
sV\u6a80
I3259
sV\u4e03
I232
sV\u8709
I3958
sV\u990d
I4059
sV\u788c
I2324
sV\u5c0f
I47
sV\u9515
I5396
sV\u4e98
I4179
sV\u7729
I3020
sV\u8c2f
I4490
sV\u5f39
I594
sV\u6e43
I3500
sV\u60dc
I959
sV\u7ae0
I284
sV\u9769
I242
sV\u8fee
I5397
sV\u6371
I3299
sV\u7f79
I4491
sV\u717d
I2591
sV\u8f83
I846
sV\u6206
I5398
sV\u5495
I1494
sV\u659f
I3613
sV\u88ad
I1822
sV\u82b1
I174
sV\u7f38
I1794
sV\u53bb
I28
sV\u6cc5
I3448
sV\u9052
I4700
sV\u4ed9
I1398
sV\u5ae1
I4060
sV\u5ce5
I5399
sV\u6beb
I952
sV\u67f3
I236
sV\u8574
I3050
sV\u5a76
I2534
sV\u5c7a
I5400
sV\u75ff
I5401
sV\u8c05
I2097
sV\u7594
I4316
sV\u601d
I257
sV\u5ba0
I2300
sV\u98a2
I4317
sV\u7629
I2363
sV\u8d2f
I2174
sV\u60b2
I836
sV\u8bc0
I2592
sV\u8dc4
I2684
sV\u7b4b
I2098
sV\u8e59
I3501
sV\u9669
I1274
sV\u5ff8
I4318
sV\u96fe
I1382
sV\u6f02
I1282
sV\u9c8b
I4968
sV\u9a8f
I3163
sV\u5591
I4492
sV\u9093
I3352
sV\u5395
I1665
sV\u629f
I4493
sV\u78a3
I4061
sV\u5526
I4701
sV\u532a
I1226
sV\u6234
I978
sV\u5eb7
I1244
sV\u7838
I1880
sV\u54bb
I2685
sV\u52bf
I797
sV\u6bc5
I3021
sV\u5e4c
I3690
sV\u5450
I1832
sV\u9752
I322
sV\u5254
I2758
sV\u82df
I1989
sV\u5de1
I1674
sV\u7f62
I371
sV\u5be5
I2827
sV\u7566
I4969
sV\u8e6c
I2593
sV\u60f3
I71
sV\u7ef7
I2535
sV\u9878
I5402
sV\u5b7a
I3764
sV\u6a84
I4494
sV\u8109
I2412
sV\u9f0d
I4970
sV\u7490
I5403
sV\u671d
I722
sV\u7b25
I4319
sV\u50a8
I2935
sV\u8c2b
I5404
sV\u8033
I557
sV\u9e37
I3765
sV\u5939
I1026
sV\u6843
I1542
sV\u94d0
I5405
sV\u68d8
I3502
sV\u7ce0
I2936
sV\u9169
I4971
sV\u6f6d
I2718
sV\u4eec
I25
sV\u777d
I3959
sV\u8983
I4495
sV\u620a
I3449
sV\u871c
I1749
sV\u79a3
I5406
sV\u77a7
I932
sV\u5426
I890
sV\u5fb7
I506
sV\u55bb
I2364
sV\u96bd
I4180
sV\u773c
I104
sV\u53bf
I464
sV\u8e42
I4702
sV\u8446
I4703
sV\u7ecd
I1164
sV\u5550
I3558
sV\u83df
I4496
sV\u5ce1
I3858
sV\u97e7
I2773
sV\u6deb
I2268
sV\u8f6c
I388
sV\u6bef
I2993
sV\u5a7a
I5407
sV\u977c
I4704
sV\u8c01
I276
sV\u6b84
I4705
sV\u7f8c
I5408
sV\u5ba4
I813
sV\u94a6
I3051
sV\u8d2b
I1887
sV\u4e2d
I36
sV\u953b
I2774
sV\u4ec2
I4972
sV\u8bc4
I545
sV\u7b4f
I3450
sV\u4f57
I5409
sV\u8859
I2700
sV\u67dc
I1227
sV\u86f2
I5410
sV\u767d
I126
sV\u9e8b
I5411
sV\u988f
I4706
sV\u5195
I3088
sV\u609f
I1514
sV\u9e20
I3559
sV\u7aa3
I3300
sV\u74a7
I2719
sV\u4eab
I1420
sV\u5cb7
I4973
sV\u743c
I3766
sV\u8d42
I3767
sV\u63c9
I2165
sV\u814a
I2166
sV\u5c4c
I3614
sV\u71d5
I2123
sV\u86db
I3301
sV\u695a
I903
sV\u635e
I2351
sV\u5fe1
I3089
sV\u59e5
I2775
sV\u94e7
I4062
sV\u7766
I3768
sV\u53e9
I3353
sV\u62f3
I1267
sV\u9a78
I4320
sV\u8309
I4181
sV\u7094
I4707
sV\u8f96
I4182
sV\u839e
I4497
sV\u7329
I3052
sV\u52a8
I121
sV\u91aa
I4708
sV\u963b
I2148
sV\u79ba
I3503
sV\u6447
I626
sV\u82c8
I5412
sV\u9ccc
I1408
sV\u55d2
I2547
sV\u9965
I1750
sV\u8bee
I3960
sV\u6175
I4063
sV\u7b79
I2413
sV\u54fc
I1351
sV\u8587
I2261
sV\u6606
I2852
sV\u9f8b
I4498
sV\u998f
I4499
sV\u7a0e
I2301
sV\u4e16
I244
sV\u9f20
I1534
sV\u502a
I4183
sV\u86b1
I3560
sV\u5db7
I4974
sV\u9ab9
I5413
sV\u7b38
I3691
sV\u6ec1
I4975
sV\u62c9
I365
sV\u804a
I1311
sV\u7ccd
I5414
sV\u5d4c
I2661
sV\u76d1
I1488
sV\u5750
I291
sV\u5154
I1938
sV\u8dd7
I4064
sV\u6e56
I1260
sV\u8174
I3961
sV\u5e76
I187
sV\u6984
I3692
sV\u6388
I929
sV\u5f0b
I5415
sV\u590f
I713
sV\u9611
I3504
sV\u7194
I3859
sV\u9ca2
I4709
sV\u7825
I4184
sV\u53a8
I1547
sV\u90aa
I1959
sV\u7eb6
I3860
sV\u543d
I4710
sV\u6b43
I4711
sV\u89c4
I1472
sV\u54d2
I2571
sV\u7fe0
I333
sV\u5b63
I1326
sV\u79e4
I2594
sV\u5567
I3164
sV\u7a79
I4065
sV\u5bf8
I2124
sV\u5785
I4712
sV\u9a87
I2740
sV\u808b
I2937
sV\u7e9f
I4976
sV\u8c28
I2397
sV\u4f2a
I1467
sV\u722c
I906
sV\u56af
I4977
sV\u7830
I3396
sV\u5cb3
I773
sV\u85b9
I5416
sV\u8bbd
I1666
sV\u4ebf
I3451
sV\u5c48
I1620
sV\u63cd
I2804
sV\u4e54
I2536
sV\u775a
I4066
sV\u5bdd
I2878
sV\u6362
I860
sV\u70eb
I2398
sV\u76ef
I1708
sV\u556e
I3615
sV\u62f7
I4500
sV\u8478
I5417
sV\u6eff
I5418
sV\u7080
I4713
sV\u5403
I159
sV\u7684
I1
sV\u5a07
I2001
sV\u75ae
I2352
sV\u5931
I422
sV\u8237
I3769
sV\u53c2
I682
sV\u96c4
I953
sV\u59c6
I1682
sV\u604b
I812
sV\u664f
I2572
sV\u60e0
I2167
sV\u8765
I5419
sV\u6ce8
I574
sV\u736d
I5420
sV\u95ee
I181
sV\u58f0
I94
sV\u5685
I4185
sV\u4e95
I1383
sV\u799b
I5421
sV\u561a
I4501
sV\u8d28
I1075
sV\u4e2a
I21
sV\u732c
I3616
sV\u7f34
I3354
sV\u6538
I5422
sV\u4fbf
I111
sV\u70c1
I1625
sV\u5140
I2548
sV\u76c5
I3090
sV\u9e4a
I3195
sV\u62cd
I895
sV\u6ed5
I3962
sV\u54d9
I4186
sV\u8be7
I2376
sV\u6866
I3617
sV\u9970
I2002
sV\u9001
I402
sV\u9605
I2187
sV\u7784
I2489
sV\u820d
I960
sV\u638c
I837
sV\u5598
I1478
sV\u5b9c
I1416
sV\u9c9e
I4714
sV\u6021
I3355
sV\u6625
I494
sV\u6c29
I5423
sV\u6cbe
I1421
sV\u7b47
I5424
sV\u5eca
I1897
sV\u83cc
I3219
sV\u674f
I830
sV\u6d53
I1340
sV\u8fd4
I2099
sV\u5357
I419
sV\u75d8
I3963
sV\u53ec
I1778
sV\u94ee
I3022
sV\u80f6
I1436
sV\u6479
I2828
sV\u9887
I1252
sV\u7b06
I3302
sV\u5f89
I3964
sV\u828b
I4187
sV\u7d0a
I3770
sV\u6912
I2537
sV\u5316
I353
sV\u7c9f
I3091
sV\u8424
I3129
sV\u68a7
I2490
sV\u52ab
I2044
sV\u54af
I2113
sV\u683c
I735
sV\u75c5
I590
sV\u9b46
I4188
sV\u874e
I4189
sV\u90d7
I5425
sV\u57d9
I2595
sV\u755a
I4502
sV\u9cdf
I4978
sV\u6162
I507
sV\u6b66
I749
sV\u4fe9
I1795
sV\u6d6a
I999
sV\u74ef
I5426
sV\u9a70
I2073
sV\u7ef3
I1000
sV\u4f7e
I4979
sV\u7280
I3771
sV\u9505
I1172
sV\u5807
I4503
sV\u810d
I4504
sV\u608c
I3965
sV\u6a90
I2188
sV\u4e13
I659
sV\u6321
I1772
sV\u6525
I2549
sV\u8ba6
I4715
sV\u6f29
I3861
sV\u4ea8
I2972
sV\u9e33
I3196
sV\u8037
I3130
sV\u94c4
I5427
sV\u5bc6
I613
sV\u624b
I89
sV\u80cc
I517
sV\u9759
I460
sV\u76d8
I983
sV\u8361
I1221
sV\u64e4
I4505
sV\u8f69
I3356
sV\u6ee8
I2938
sV\u50ec
I5428
sV\u7b71
I5429
sV\u85fa
I5430
sV\u5281
I3357
sV\u660e
I132
sV\u8f93
I1580
sV\u5216
I5431
sV\u67a3
I2939
sV\u9042
I1683
sV\u5544
I2701
sV\u7ec9
I4980
sV\u864e
I957
sV\u6cd5
I210
sV\u7256
I4716
sV\u9bdb
I4506
sV\u745a
I4067
sV\u6062
I1979
sV\u6c6a
I955
sV\u916c
I2853
sV\u7ff3
I4717
sV\u4e7e
I2759
sV\u5703
I3693
sV\u5907
I851
sV\u800d
I1796
sV\u8c15
I3397
sV\u6d94
I3772
sV\u6221
I5432
sV\u80a2
I2189
sV\u6e29
I857
sV\u4fa8
I3398
sV\u502d
I3966
sV\u952f
I3260
sV\u76ae
I346
sV\u5a31
I2854
sV\u64ba
I4981
sV\u8d3f
I3261
sV\u7743
I4718
sV\u634b
I3862
sV\u654f
I452
sV\u5b5b
I4068
sV\u8e69
I4190
sV\u706d
I1001
sV\u5bf0
I4982
sV\u5df4
I429
sV\u5581
I4983
sV\u9083
I3694
sV\u5385
I1048
sV\u9e87
I4984
sV\u848b
I2125
sV\u7a9f
I2940
sV\u60a3
I2282
sV\u6ea7
I4985
sV\u54ab
I4191
sV\u97ad
I1343
sV\u8fbd
I2905
sV\u5440
I447
sV\u79c9
I3452
sV\u6dd1
I2906
sV\u6bd5
I992
sV\u5fdd
I4986
sV\u795e
I277
sV\u6d66
I3773
sV\u6b6a
I1295
sV\u966c
I5433
sV\u72ef
I5434
sV\u516e
I2045
sV\u9a74
I366
sV\u6cfb
I2973
sV\u8e7c
I4987
sV\u9501
I1783
sV\u7480
I3863
sV\u7284
I3774
sV\u870d
I4988
sV\u668c
I4989
sV\u6c90
I3561
sV\u7119
I4507
sV\u7f1d
I1238
sV\u5e9c
I642
sV\u6325
I1021
sV\u8baa
I3197
sV\u572d
I3967
sV\u7fb2
I3399
sV\u63ba
I3053
sV\u4f3d
I3864
sV\u94c0
I4990
sV\u57c2
I3695
sV\u7e47
I5435
sV\u6853
I3198
sV\u5657
I1915
sV\u70d8
I2209
sV\u7edc
I2431
sV\u62e4
I2805
sV\u5cf0
I2114
sV\u7b75
I3303
sV\u5481
I4192
sV\u9f87
I2504
sV\u5889
I5436
sV\u600e
I191
sV\u521a
I688
sV\u581e
I4508
sV\u9642
I5437
sV\u5948
I1855
sV\u8e52
I3618
sV\u81e3
I1548
sV\u5e72
I228
sV\u6dfb
I1559
sV\u8f7c
I4069
sV\u7384
I1718
sV\u8c11
I3453
sV\u9496
I5438
sV\u5f9c
I3968
sV\u6421
I3220
sV\u6829
I3358
sV\u562d
I3619
sV\u932f
I5439
sV\u70ae
I1205
sV\u5c31
I20
sV\u7eb2
I2720
sV\u8737
I3400
sV\u8d3b
I3620
sV\u4e3d
I918
sV\u634f
I1468
sV\u8bd4
I5440
sV\u5757
I550
sV\u5b5f
I467
sV\u8461
I2806
sV\u65e0
I87
sV\u8869
I3054
sV\u6079
I3969
sV\u88fe
I4719
sV\u5185
I473
sV\u9c87
I4720
sV\u7f06
I3401
sV\u5b89
I339
sV\u868b
I4991
sV\u808f
I5441
sV\u630e
I2974
sV\u8a93
I2059
sV\u6d12
I1699
sV\u7e9b
I4509
sV\u789f
I2596
sV\u6ca7
I2941
sV\u4f26
I1180
sV\u742c
I3865
sV\u5ab3
I2100
sV\u7834
I403
sV\u83b9
I2829
sV\u4ebb
I4992
sV\u9542
I3970
sV\u6fd1
I4993
sV\u4e50
I478
sV\u53d9
I1865
sV\u9edb
I3221
sV\u5ddd
I1581
sV\u98df
I681
sV\u6562
I552
sV\u6f66
I3454
sV\u9e70
I2621
sV\u9701
I4070
sV\u5203
I2597
sV\u7a88
I4510
sV\u6e90
I1146
sV\u919a
I5442
sV\u902f
I4994
sV\u73ae
I4995
sV\u5f31
I1228
sV\u67b6
I944
sV\u96c0
I1916
sV\u5fc6
I931
sV\u664b
I1675
sV\u59ca
I2721
sV\u88d4
I3562
sV\u5457
I4721
sV\u5e5b
I4722
sV\u7cdc
I4321
sV\u8165
I1691
sV\u7f71
I5443
sV\u8bfe
I1898
sV\u5085
I2550
sV\u818f
I2505
sV\u620e
I3971
sV\u4e91
I314
sV\u7597
I2722
sV\u501a
I2190
sV\u63a3
I4193
sV\u6da7
I3866
sV\u57ab
I2506
sV\u752c
I3359
sV\u51af
I2091
sV\u7f30
I2175
sV\u5bb3
I665
sV\u7934
I5444
sV\u82b9
I4194
sV\u6d3c
I2016
sV\u5740
I2598
sV\u5144
I867
sV\u9e46
I5445
sV\u64cd
I1264
sV\u6ed1
I1163
sV\u4f50
I3775
sV\u68d5
I3131
sV\u7656
I3867
sV\u77eb
I3262
sV\u956c
I4322
sV\u9974
I4323
sV\u65f7
I2776
sV\u8378
I4996
sV\u9601
I2662
sV\u7780
I4997
sV\u9005
I4998
sV\u7184
I2198
sV\u5d07
I1676
sV\u840d
I3055
sV\u658c
I5446
sV\u8815
I3056
sV\u6994
I5447
sV\u5398
I2855
sV\u9a9e
I4723
sV\u6025
I695
sV\u88aa
I5448
sV\u542d
I2060
sV\u7cb2
I3696
sV\u5835
I2115
sV\u8537
I3023
sV\u54c2
I4511
sV\u8fd0
I569
sV\u89d4
I5449
sV\u67e0
I4999
sV\u55ec
I3697
sV\u6279
I714
sV\u80fa
I5000
sV\u6c7d
I1212
sV\u5981
I5450
sV\u5f85
I541
sV\u5589
I1454
sV\u888b
I817
sV\u8e8f
I4724
sV\u6d0e
I5451
sV\u7a97
I744
sV\u5916
I170
sV\u8428
I2507
sV\u54b3
I1960
sV\u7634
I3402
sV\u6c38
I760
sV\u83bd
I1980
sV\u79c1
I1413
sV\u9b42
I1010
sV\u7fc5
I1917
sV\u5e44
I4725
sV\u75c9
I3092
sV\u5448
I1899
sV\u6bcd
I285
sV\u8d4e
I3403
sV\u61d1
I4512
sV\u8352
I1245
sV\u7956
I558
sV\u90db
I5001
sV\u7f5a
I1856
sV\u6b62
I748
sV\u9a6c
I226
sV\u7eef
I3505
sV\u8c78
I3868
sV\u66ff
I1303
sV\u5207
I411
sV\u9509
I4726
sV\u8111
I697
sV\u8715
I3455
sV\u9996
I672
sV\u9f9a
I1417
sV\u731d
I5002
sV\u8ba2
I2269
sV\u4ea4
I562
sV\u9e2f
I3222
sV\u73b2
I2622
sV\u803b
I1677
sV\u5bc2
I1136
sV\u9ec4
I227
sV\u7247
I318
sV\u51c6
I693
sV\u94c8
I5452
sV\u86d4
I4727
sV\u68e0
I3869
sV\u6ee4
I4071
sV\u56f4
I625
sV\u760a
I5003
sV\u8f8f
I5004
sV\u6212
I1918
sV\u7b97
I426
sV\u5e1a
I3093
sV\u779f
I4728
sV\u541e
I1732
sV\u6da3
I3698
sV\u63a7
I2149
sV\u59ab
I5005
sV\u7b2c
I144
sV\u90b1
I4324
sV\u7130
I1900
sV\u55b3
I3304
sV\u6d38
I4513
sV\u82bd
I2061
sV\u78c1
I3305
sV\u7ec5
I1881
sV\u60d1
I1678
sV\u5cd9
I3776
sV\u745e
I1692
sV\u4ee5
I39
sV\u79eb
I5453
sV\u5272
I1637
sV\u9774
I3563
sV\u837c
I5006
sV\u67ff
I2907
sV\u7980
I3777
sV\u4f0f
I1105
sV\u9896
I3094
sV\u949e
I2024
sV\u6821
I586
sV\u6e25
I4729
sV\u86aa
I3699
sV\u7cae
I1479
sV\u6eba
I3621
sV\u873f
I3165
sV\u5ac2
I1098
sV\u56ca
I2233
sV\u8bcc
I4072
sV\u5b57
I204
sV\u575f
I1152
sV\u8861
I2377
sV\u65e8
I2645
sV\u51f0
I1318
sV\u6c79
I2270
sV\u627d
I5007
sV\u5b81
I949
sV\u8693
I3778
sV\u7897
I981
sV\u5b16
I5008
sV\u8c24
I2908
sV\u782c
I5454
sV\u7230
I4514
sV\u7434
I1638
sV\u8fb9
I131
sV\u6e38
I650
sV\u603c
I5009
sV\u7bc1
I4073
sV\u5a40
I4515
sV\u5c44
I5010
sV\u954a
I3506
sV\u7b56
I1693
sV\u5fd9
I600
sV\u51dd
I1659
sV\u80e7
I2085
sV\u7cef
I5011
sV\u5e03
I520
sV\u9709
I2399
sV\u7f19
I4325
sV\u6b21
I269
sV\u6d25
I1644
sV\u85aa
I2116
sV\u592d
I3360
sV\u9633
I442
sV\u5535
I5012
sV\u823b
I5455
sV\u9ac0
I4516
sV\u9cc4
I4195
sV\u4fce
I5013
sV\u6653
I1931
sV\u7ed8
I2126
sV\u915d
I3564
sV\u796d
I2062
sV\u58ec
I3024
sV\u7371
I5456
sV\u52f0
I4730
sV\u8dfa
I3166
sV\u87fe
I4517
sV\u9f83
I5014
sV\u7802
I2777
sV\u9187
I3361
sV\u7206
I1535
sV\u740a
I4518
sV\u6e0e
I4196
sV\u8793
I5457
sV\u6012
I914
sV\u739b
I2909
sV\u5c1a
I848
sV\u759f
I4326
sV\u561e
I5458
sV\u8d24
I1166
sV\u61a7
I3870
sV\u5bab
I1700
sV\u94b5
I3779
sV\u80bd
I5459
sV\u5b40
I4074
sV\u68cd
I1281
sV\u8052
I3700
sV\u765e
I2491
sV\u6862
I4075
sV\u81e7
I4731
sV\u996c
I3780
sV\u77f3
I413
sV\u7b80
I901
sV\u5f03
I1332
sV\u5107
I5460
sV\u9609
I3095
sV\u6390
I3025
sV\u9a96
I5015
sV\u5f98
I2879
sV\u519c
I726
sV\u6a21
I780
sV\u82a6
I1621
sV\u5435
I1622
sV\u4e39
I1939
sV\u66be
I4327
sV\u6d4f
I4076
sV\u4ece
I100
sV\u5957
I1106
sV\u7fd8
I2017
sV\u4f63
I3972
sV\u6de4
I3026
sV\u786d
I5461
sV\u59ec
I4519
sV\u53f0
I634
sV\u4ff8
I3507
sV\u607d
I4520
sV\u86fe
I3508
sV\u5b85
I2525
sV\u5189
I3132
sV\u4f8d
I2331
sV\u690e
I3781
sV\u5d16
I2492
sV\u961c
I3701
sV\u729f
I4328
sV\u8c20
I4732
sV\u66a7
I3263
sV\u5cab
I5462
sV\u7430
I5463
sV\u6838
I2686
sV\u87bd
I5464
sV\u663c
I3096
sV\u5c40
I745
sV\u5048
I4521
sV\u934a
I5465
sV\u4e4c
I1107
sV\u94db
I3264
sV\u7b5a
I5466
sV\u715e
I2271
sV\u6f62
I5016
sV\u6566
I2463
sV\u9e6c
I5467
sV\u7aef
I761
sV\u9274
I2199
sV\u867c
I4733
sV\u62ff
I435
sV\u7a84
I1968
sV\u8511
I1784
sV\u8315
I5017
sV\u6294
I5468
sV\u83aa
I5469
sV\u5f2d
I5470
sV\u5531
I656
sV\u61be
I2378
sV\u53ca
I495
sV\u84d0
I5471
sV\u6053
I5472
sV\u82d4
I2880
sV\u545b
I3404
sV\u8d61
I4734
sV\u6ce0
I5473
sV\u8169
I5474
sV\u60e8
I1234
sV\u8df6
I5018
sV\u6979
I5475
sV\u8bfa
I1510
sV\u81fe
I5019
sV\u5c81
I657
sV\u7406
I271
sV\u8d8b
I2445
sV\u4e8d
I4735
sV\u680e
I4522
sV\u5c16
I801
sV\u971c
I2063
sV\u8d20
I4329
sV\u4e22
I1519
sV\u7f2c
I4736
sV\u94b1
I354
sV\u7530
I969
sV\u51b3
I559
sV\u7334
I1399
sV\u7cc1
I4523
sV\u5148
I148
sV\u56dd
I5476
sV\u705e
I5020
sV\u89e3
I306
sV\u626a
I4330
sV\u9570
I2994
sV\u877c
I4737
sV\u63ff
I3973
sV\u9009
I1027
sV\u6f8c
I5021
sV\u8411
I5477
sV\u6590
I2910
sV\u9a9a
I1808
sV\u6c21
I5022
sV\u6029
I4331
sV\u5e2d
I1011
sV\u5431
I1742
sV\u853b
I5023
sV\u7747
I5024
sV\u54c6
I2222
sV\u6d4b
I1961
sV\u85d0
I4524
sV\u6153
I5478
sV\u83d4
I5479
sV\u5f57
I4738
sV\u79d8
I1068
sV\u77dc
I3702
sV\u8c61
I529
sV\u8069
I5480
sV\u55f0
I4525
sV\u7275
I987
sV\u5f81
I1344
sV\u9a83
I4739
sV\u5389
I1489
sV\u710a
I3703
sV\u6512
I3097
sV\u7c97
I972
sV\u591a
I79
sV\u7630
I4740
sV\u52b3
I1007
sV\u8bb9
I3565
sV\u7fc1
I1764
sV\u914a
I5025
sV\u67d1
I5481
sV\u55dd
I3509
sV\u4fe1
I274
sV\u7eeb
I3566
sV\u4f76
I5482
sV\u5a03
I1684
sV\u4e0b
I37
sV\u6c8c
I3405
sV\u6094
I1528
sV\u7b19
I3782
sV\u5d2d
I3167
sV\u75b2
I1888
sV\u5135
I3974
sV\u8c37
I1240
sV\u803f
I2446
sV\u63be
I5026
sV\u92c8
I4526
sV\u6253
I134
sV\u74dc
I1473
sV\u8369
I5027
sV\u62e8
I1515
sV\u56f0
I1449
sV\u95f2
I709
sV\u6b79
I3362
sV\u5885
I3975
sV\u7606
I4527
sV\u8393
I4741
sV\u5e16
I1816
sV\u719f
I827
sV\u65a7
I2702
sV\u8328
I3168
sV\u90b5
I3057
sV\u6b38
I4332
sV\u7ec1
I4742
sV\u5f40
I5028
sV\u78c5
I4743
sV\u5944
I3199
sV\u9646
I1564
sV\u5348
I751
sV\u60d5
I3306
sV\u54dd
I2741
sV\u8be3
I3976
sV\u6666
I2623
sV\u79ef
I1230
sV\u6df7
I1071
sV\u61ff
I3058
sV\u7984
I3456
sV\u5507
I1167
sV\u6d8c
I1319
sV\u8611
I3363
sV\u6790
I2723
sV\u8015
I2074
sV\u6194
I3510
sV\u5b98
I417
sV\u989a
I4744
sV\u559c
I424
sV\u6e21
I1197
sV\u4fa0
I2053
sV\u80aa
I4077
sV\u5631
I2778
sV\u8d37
I3704
sV\u6eb6
I3783
sV\u873b
I2881
sV\u6f4b
I4745
sV\u8dcc
I1292
sV\u575b
I1728
sV\u8e61
I5483
sV\u6fe0
I5484
sV\u8865
I1181
sV\u94f2
I2551
sV\u7075
I703
sV\u6a79
I3871
sV\u647d
I5485
sV\u82fe
I5029
sV\u8302
I2332
sV\u5810
I5486
sV\u8297
I5487
sV\u94a3
I5488
sV\u7624
I4333
sV\u822c
I352
sV\u69b1
I5489
sV\u75b9
I3705
sV\u573a
I338
sV\u5d3e
I5490
sV\u81c1
I5030
sV\u6342
I2150
sV\u754e
I5491
sV\u7b52
I1823
sV\u62d7
I2742
sV\u6edf
I4746
sV\u8d5e
I1352
sV\u74e3
I2302
sV\u5664
I3872
sV\u80eb
I4747
sV\u626c
I1012
sV\u6101
I1536
sV\u558e
I5492
sV\u9890
I3169
sV\u7f15
I2046
sV\u679a
I2092
sV\u6d9e
I5493
sV\u5423
I5031
sV\u602b
I5494
sV\u662f
I6
sV\u85ae
I4748
sV\u8bb2
I451
sV\u7237
I91
sV\u54b8
I2003
sV\u5951
I2333
sV\u78d0
I5495
sV\u5f55
I1176
sV\u6559
I240
sV\u5fea
I4197
sV\u65ee
I5032
sV\u5e7f
I578
sV\u8202
I3784
sV\u6b87
I4078
sV\u8e0a
I4528
sV\u6518
I2911
sV\u8f9f
I2200
sV\u5ca9
I2447
sV\u832c
I3223
sV\u74b9
I5496
sV\u9538
I5497
sV\u9b3c
I483
sV\u5c3e
I995
sV\u80c1
I2807
sV\u6846
I2573
sV\u51cb
I3265
sV\u69db
I2779
sV\u865a
I919
sV\u75e3
I2995
sV\u5764
I2882
sV\u8df3
I532
sV\u4ef5
I5033
sV\u6f74
I5034
sV\u7578
I4334
sV\u6001
I898
sV\u8180
I1600
sV\u548e
I3622
sV\u9990
I5035
sV\u5a92
I2624
sV\u6096
I3873
sV\u4f1f
I1268
sV\u9021
I4749
sV\u612b
I4529
sV\u7eaa
I762
sV\u672f
I599
sV\u7337
I3977
sV\u8543
I4750
sV\u67c4
I1685
sV\u914b
I4751
sV\u524d
I95
sV\u5851
I1948
sV\u5e55
I1701
sV\u7fd4
I2493
sV\u8bdc
I5498
sV\u5eea
I4752
sV\u5377
I440
sV\u9a7d
I4753
sV\u8102
I2379
sV\u4e08
I1368
sV\u728b
I4079
sV\u500c
I3785
sV\u970e
I3978
sV\u5c14
I701
sV\u98a7
I3979
sV\u6db5
I2856
sV\u8c34
I3623
sV\u79bd
I2599
sV\u83c1
I3706
sV\u6b46
I3874
sV\u52cb
I2552
sV\u6d4a
I2136
sV\u91cd
I280
sV\u5ed3
I3027
sV\u9162
I5499
sV\u82eb
I4530
sV\u606c
I3707
sV\u6c74
I5500
sV\u57f9
I1866
sV\u7678
I3624
sV\u9afb
I3457
sV\u787c
I5501
sV\u6301
I689
sV\u6f09
I2538
sV\u7b11
I173
sV\u5992
I2400
sV\u6396
I3511
sV\u5623
I4080
sV\u9525
I3364
sV\u7a3b
I2646
sV\u7c3f
I3098
sV\u514d
I805
sV\u5b51
I3875
sV\u4fde
I4081
sV\u7565
I841
sV\u94e4
I5502
sV\u7f69
I1516
sV\u816d
I4531
sV\u4e73
I1549
sV\u69f2
I5503
sV\u8d75
I617
sV\u5077
I1065
sV\u997d
I3099
sV\u5c7f
I3876
sV\u6987
I4754
sV\u738b
I295
sV\u8c0a
I2912
sV\u758f
I1919
sV\u960e
I2018
sV\u5d14
I4198
sV\u8d9f
I2464
sV\u52a1
I802
sV\u7f28
I3059
sV\u812c
I5504
sV\u8d34
I1201
sV\u5236
I646
sV\u9738
I2262
sV\u82c1
I4755
sV\u6042
I5505
sV\u53cb
I554
sV\u6c4a
I4756
sV\u9ad1
I3708
sV\u6bdb
I386
sV\u5360
I925
sV\u77e3
I1462
sV\u9062
I4335
sV\u5564
I2808
sV\u79e7
I4082
sV\u8ff3
I5506
sV\u6d74
I2365
sV\u6405
I2047
sV\u8584
I1036
sV\u8f88
I1490
sV\u568e
I1773
sV\u5892
I4083
sV\u6296
I1123
sV\u5723
I1159
sV\u5927
I19
sV\u7aa6
I4084
sV\u9e29
I5507
sV\u632b
I3100
sV\u7caa
I1920
sV\u652f
I510
sV\u6f33
I5508
sV\u94ba
I4085
sV\u9ebe
I4757
sV\u65c4
I5509
sV\u4e49
I267
sV\u954f
I5510
sV\u5c55
I1028
sV\u4ede
I4532
sV\u7261
I3170
sV\u5ae6
I3133
sV\u5cea
I5511
sV\u4f73
I1824
sV\u5177
I1005
sV\u987d
I2004
sV\u7efe
I3567
sV\u8702
I1857
sV\u748b
I4533
sV\u560c
I5512
sV\u7893
I5513
sV\u4f9d
I779
sV\u90a3
I23
sV\u53a5
I3171
sV\u59a9
I3980
sV\u67ad
I3406
sV\u8c30
I5036
sV\u4f32
I5037
sV\u6bb5
I692
sV\u71b9
I3101
sV\u9038
I2465
sV\u533a
I1114
sV\u7fbd
I1962
sV\u85c1
I5514
sV\u6742
I491
sV\u4ec7
I1137
sV\u6d46
I2137
sV\u89c9
I197
sV\u714e
I2625
sV\u8556
I5515
sV\u6cdb
I1751
sV\u835a
I4086
sV\u4e5c
I3266
sV\u9762
I99
sV\u7ee7
I1296
sV\u82ef
I5038
sV\u6c70
I3307
sV\u88f3
I2432
sV\u96f7
I1455
sV\u51f9
I2857
sV\u5ffd
I727
sV\u8284
I5516
sV\u8888
I4534
sV\u9c90
I5517
sV\u5f92
I1165
sV\u9521
I2366
sV\u5e27
I5039
sV\u7da6
I2942
sV\u7a3f
I1078
sV\u64c0
I3512
sV\u8043
I2780
sV\u62c4
I2663
sV\u8e47
I5518
sV\u574d
I3308
sV\u924f
I5519
sV\u5b55
I2035
sV\u94e0
I4199
sV\u5de6
I685
sV\u98e8
I4336
sV\u5a7f
I2975
sV\u79fe
I5520
sV\u8c06
I5040
sV\u58a9
I2830
sV\u6cb1
I4535
sV\u8d30
I3028
sV\u4e32
I1403
sV\u5436
I2943
sV\u70b9
I152
sV\u523a
I752
sV\u7ebd
I2944
sV\u84c1
I4200
sV\u6c46
I5521
sV\u88c9
I5522
sV\u96cd
I3224
sV\u59d3
I893
sV\u4f5c
I77
sV\u9662
I342
sV\u5364
I3709
sV\u83ef
I5523
sV\u89f3
I4536
sV\u7178
I5524
sV\u6401
I2036
sV\u6809
I5525
sV\u508e
I5526
sV\u8019
I3134
sV\u629a
I1833
sV\u8e1d
I4201
sV\u5f27
I2760
sV\u652b
I4202
sV\u632f
I1867
sV\u80ae
I2325
sV\u8eb2
I1359
sV\u7737
I2574
sV\u63c4
I4337
sV\u5c51
I2283
sV\u6059
I4338
sV\u8fdc
I301
sV\u56e2
I643
sV\u5ce6
I3981
sV\u60ee
I3135
sV\u5777
I3458
sV\u74f6
I1188
sV\u72fa
I4537
sV\u768b
I3459
sV\u890a
I4758
sV\u540c
I147
sV\u5e10
I2086
sV\u6218
I341
sV\u7620
I3877
sV\u51a5
I2724
sV\u9ca7
I2996
sV\u65ad
I605
sV\u8bc9
I828
sV\u50cf
I164
sV\u815a
I2433
sV\u9562
I3982
sV\u996a
I4538
sV\u80ef
I2414
sV\u4ff1
I2210
sV\u6874
I4339
sV\u53f9
I1029
sV\u9efb
I5527
sV\u5dfd
I4340
sV\u8680
I3172
sV\u8084
I4203
sV\u9894
I5041
sV\u4e1b
I1160
sV\u8d1d
I1932
sV\u5c27
I2626
sV\u602f
I2019
sV\u91ba
I3568
sV\u8c47
I5528
sV\u964b
I2334
sV\u904f
I3786
sV\u7ed0
I5529
sV\u5955
I3407
sV\u78d4
I5042
sV\u7761
I445
sV\u96e0
I5043
sV\u8f71
I3408
sV\u5477
I3983
sV\u5e7b
I1353
sV\u7bfe
I4204
sV\u718f
I2553
sV\u7b93
I5044
sV\u5914
I4759
sV\u8f9b
I1286
sV\u7720
I1222
sV\u50a5
I4539
sV\u7b28
I1765
sV\u64ad
I2127
sV\u852c
I3984
sV\u6eb1
I3985
sV\u68b5
I3513
sV\u8934
I3986
sV\u5636
I2201
sV\u72b9
I998
sV\u503a
I2703
sV\u7cbd
I3460
sV\u57cb
I1247
sV\u51cf
I1733
sV\u9ed1
I221
sV\u5bd3
I1933
sV\u98d5
I3461
sV\u65d7
I1102
sV\u805a
I1391
sV\u69df
I4540
sV\u5760
I2211
sV\u9e66
I4087
sV\u656c
I873
sV\u8bf3
I3710
sV\u95f7
I1304
sV\u6005
I3102
sV\u4e86
I4
sV\u9994
I3878
sV\u6696
I1261
sV\u4f1b
I5045
sV\u609a
I3267
sV\u8c1d
I3879
sV\u5323
I1825
sV\u5d27
I5046
sV\u7ea6
I533
sV\u672b
I849
sV\u82ae
I3987
sV\u7537
I427
sV\u96b6
I2508
sV\u90ba
I5530
sV\u8343
I3880
sV\u83d8
I5531
sV\u6c5d
I2664
sV\u62ee
I4341
sV\u5577
I2761
sV\u5f7b
I1709
sV\u6c83
I3060
sV\u8106
I1766
sV\u870a
I4760
sV\u809b
I4342
sV\u67b5
I5047
sV\u5f3a
I630
sV\u553e
I2314
sV\u89c1
I82
sV\u8fc5
I563
sV\u85c9
I2913
sV\u91d1
I254
sV\u54d3
I5048
sV\u7352
I3881
sV\u9166
I5532
sV\u5468
I220
sV\u6070
I1949
sV\u6674
I2212
sV\u53fd
I2781
sV\u8e84
I4761
sV\u9a8c
I1257
sV\u9694
I1213
sV\u9529
I3711
sV\u77aa
I1963
sV\u6e2f
I1842
sV\u83b2
I2005
sV\u7a37
I4343
sV\u5cb8
I1209
sV\u52bc
I5533
sV\u763f
I5534
sV\u68c0
I1660
sV\u8247
I3309
sV\u9e4f
I3173
sV\u5151
I3365
sV\u76d4
I3200
sV\u6d59
I1550
sV\u4fda
I4344
sV\u82dc
I4541
sV\u7f65
I5535
sV\u94e8
I5536
sV\u6dee
I2945
sV\u8171
I4542
sV\u5a77
I4345
sV\u507b
I3988
sV\u6387
I4346
sV\u8006
I4347
sV\u819b
I1743
sV\u879f
I5537
sV\u7f24
I3625
sV\u54a9
I4088
sV\u7528
I90
sV\u60b1
I5049
sV\u8734
I4348
sV\u7cb9
I2151
sV\u543e
I1327
sV\u88c1
I2234
sV\u84c9
I4349
sV\u59cb
I588
sV\u5fcf
I3569
sV\u90d1
I1817
sV\u55d3
I1901
sV\u7252
I4350
sV\u96d5
I1785
sV\u6bd7
I4351
sV\u8e5a
I5538
sV\u5960
I3201
sV\u5f64
I3310
sV\u73e7
I5539
sV\u89eb
I5540
sV\u966a
I1354
sV\u6170
I1569
sV\u6774
I3989
sV\u6e05
I136
sV\u8f84
I3570
sV\u7a0d
I1907
sV\u7011
I3061
sV\u9190
I5541
sV\u8c19
I4543
sV\u649e
I1111
sV\u9e25
I3712
sV\u94be
I4762
sV\u8d43
I4352
sV\u4e45
I518
sV\u8347
I5542
sV\u8dd8
I5543
sV\u83dc
I907
sV\u95e8
I105
sV\u4f6f
I3409
sV\u6cee
I5050
sV\u517b
I683
sV\u7efa
I2883
sV\u6e83
I2647
sV\u8902
I2303
sV\u9f0e
I2380
sV\u7693
I3626
sV\u601c
I1270
sV\u5ba1
I1868
sV\u7a20
I2976
sV\u69ad
I5051
sV\u8230
I3571
sV\u7fb9
I3990
sV\u903c
I1437
sV\u573e
I2946
sV\u8bc1
I877
sV\u4ec3
I3787
sV\u6942
I4205
sV\u6346
I1779
sV\u4e58
I1529
sV\u62db
I899
sV\u8d5a
I2704
sV\u7ee3
I2025
sV\u70e7
I661
sV\u5668
I1030
sV\u956a
I5544
sV\u6270
I2064
sV\u86f3
I5545
sV\u51fd
I2554
sV\u707c
I2065
sV\u94ff
I3311
sV\u6709
I10
sV\u988c
I5052
sV\u5192
I1258
sV\u6b96
I2315
sV\u679e
I4353
sV\u6c2f
I5053
sV\u5eb8
I1826
sV\u723b
I3788
sV\u6cc4
I2087
sV\u5351
I1827
sV\u72d0
I1369
sV\u5555
I3410
sV\u80dc
I964
sV\u53e6
I794
sV\u96e8
I579
sV\u6fee
I5546
sV\u917d
I5547
sV\u8206
I2884
sV\u5310
I5548
sV\u9012
I1818
sV\u5514
I2600
sV\u7b20
I3411
sV\u7728
I2494
sV\u68ad
I2048
sV\u62b1
I648
sV\u64b5
I3202
sV\u5a36
I2235
sV\u7eb9
I1686
sV\u5c3a
I1537
sV\u70bd
I3366
sV\u4fc3
I1921
sV\u6842
I2049
sV\u86c9
I4354
sV\u644a
I1797
sV\u8c5a
I4763
sV\u865e
I2858
sV\u71e7
I4355
sV\u5768
I4089
sV\u8beb
I3312
sV\u8def
I214
sV\u6574
I698
sV\u6c05
I5549
sV\u8d84
I3412
sV\u780d
I1882
sV\u80b2
I904
sV\u96be
I256
sV\u6dc4
I4544
sV\u67c8
I4764
sV\u584d
I5550
sV\u5251
I1374
sV\u73d0
I5551
sV\u9753
I5054
sV\u5455
I2687
sV\u75d4
I3713
sV\u8fd8
I41
sV\u54ea
I493
sV\u8475
I3029
sV\u907d
I3991
sV\u76fe
I2176
sV\u6687
I2381
sV\u5e0c
I622
sV\u5410
I1112
sV\u829f
I5055
sV\u5ba5
I5552
sV\u96a7
I3992
sV\u8234
I5553
sV\u79b9
I1889
sV\u77bd
I4765
sV\u8bc5
I2947
sV\u5ccb
I4206
sV\u8d56
I1798
sV\u62df
I2138
sV\u5c60
I1922
sV\u936a
I5554
sV\u4fed
I3714
sV\u80f3
I1360
sV\u6d01
I1645
sV\u6109
I1990
sV\u7511
I2885
sV\u9490
I5555
sV\u5792
I2627
sV\u7315
I5556
sV\u4eac
I246
sV\u6a2f
I5557
sV\u56bc
I1719
sV\u723f
I5558
sV\u7ecc
I4207
sV\u9053
I58
sV\u5355
I441
sV\u88d8
I4356
sV\u55e6
I1981
sV\u90e8
I323
sV\u53ea
I68
sV\u8f6d
I5056
sV\u547b
I2284
sV\u527f
I3225
sV\u8406
I5559
sV\u5510
I373
sV\u9612
I5560
sV\u8f97
I3462
sV\u859b
I3413
sV\u7d20
I1450
sV\u7b24
I4357
sV\u50a9
I3268
sV\u62b5
I1037
sV\u8334
I3882
sV\u9938
I5561
sV\u503e
I1443
sV\u6446
I874
sV\u5b64
I1195
sV\u5168
I223
sV\u8deb
I4766
sV\u8bef
I1059
sV\u6570
I523
sV\u81f3
I258
sV\u58f9
I4208
sV\u7978
I1843
sV\u95fb
I725
sV\u56fd
I73
sV\u8188
I5562
sV\u9f8c
I3514
sV\u4f17
I485
sV\u7ea2
I199
sV\u6d2b
I5563
sV\u4fac
I4767
sV\u9cb6
I5564
sV\u753b
I415
sV\u9aba
I5565
sV\u733f
I3463
sV\u6dc0
I3414
sV\u8747
I1844
sV\u61c8
I3993
sV\u7fcc
I3515
sV\u9b4f
I1767
sV\u54e6
I1923
sV\u8e6d
I2401
sV\u68ee
I1710
sV\u8471
I2152
sV\u66f2
I404
sV\u5f77
I2575
sV\u9879
I2006
sV\u557b
I5566
sV\u7afa
I3883
sV\u537f
I2743
sV\u4e00
I3
sV\u6487
I2448
sV\u810a
I1734
sV\u9512
I5567
sV\u5014
I3030
sV\u6a18
I5568
sV\u641c
I1241
sV\u809f
I5569
sV\u5fa1
I2509
sV\u59a5
I1869
sV\u94a7
I3269
sV\u53a9
I5057
sV\u7228
I5058
sV\u8c2c
I2576
sV\u67b1
I5570
sV\u593a
I1711
sV\u75bd
I4090
sV\u533e
I4091
sV\u8fc1
I2037
sV\u89c5
I2688
sV\u6746
I1582
sV\u60df
I1511
sV\u835e
I4209
sV\u7ae3
I4768
sV\u5864
I5571
sV\u9766
I5572
sV\u916a
I5573
sV\u88ef
I5574
sV\u6670
I2335
sV\u5bf9
I81
sV\u55fd
I2449
sV\u6905
I1799
sV\u8884
I1902
sV\u6309
I747
sV\u9690
I1004
sV\u7115
I3516
sV\u5a23
I5059
sV\u5427
I253
sV\u8bae
I781
sV\u6233
I2139
sV\u5ab8
I5575
sV\u62c8
I3464
sV\u5751
I1845
sV\u76d0
I2153
sV\u5155
I5060
sV\u6b59
I4769
sV\u655d
I3062
sV\u7f61
I5576
sV\u9ee0
I5061
sV\u5de2
I2466
sV\u7965
I1639
sV\u8d6d
I4545
sV\u567b
I5577
sV\u507f
I3367
sV\u6b83
I3627
sV\u6587
I57
sV\u798f
I691
sV\u7f20
I1400
sV\u52a9
I753
sV\u8d2c
I3313
sV\u6c42
I603
sV\u88c5
I585
sV\u9ccd
I4770
sV\u7452
I4771
sV\u75e7
I3994
sV\u8feb
I1157
sV\u89ef
I5578
sV\u6770
I1277
sV\u7b78
I5062
sV\u54fd
I3465
sV\u6805
I2191
sV\u5492
I1858
sV\u841d
I2415
sV\u9e21
I766
sV\u7ca2
I5579
sV\u5527
I2316
sV\u6f2b
I984
sV\u84b2
I2038
sV\u5bb8
I4358
sV\u6fc0
I858
sV\u5651
I5063
sV\u5055
I5064
sV\u71d4
I5065
sV\u4ed6
I12
sV\u6a59
I4210
sV\u8bd8
I3415
sV\u85dc
I4546
sV\u7269
I255
sV\u8671
I2886
sV\u7ef6
I3995
sV\u9a79
I2997
sV\u577b
I5066
sV\u78fa
I3572
sV\u7483
I1573
sV\u6c93
I2744
sV\u4e14
I288
sV\u5599
I4211
sV\u989b
I3996
sV\u5b9d
I700
sV\u9e9f
I2914
sV\u6020
I3031
sV\u6c28
I4359
sV\u73ad
I5067
sV\u552e
I2272
sV\u65b9
I171
sV\u7946
I5580
sV\u89d1
I2948
sV\u72d7
I224
sV\u5458
I298
sV\u7edf
I1042
sV\u53ed
I1574
sV\u96ef
I5581
sV\u5ff5
I566
sV\u6478
I834
sV\u9080
I2416
sV\u5382
I1129
sV\u5986
I1720
sV\u9c88
I4212
sV\u5f8a
I2745
sV\u5217
I966
sV\u9519
I669
sV\u63a2
I1148
sV\u8725
I4213
sV\u8d29
I2213
sV\u52ac
I4772
sV\u6237
I1079
sV\u87ba
I3466
sV\u8dbe
I2809
sV\u5141
I2140
sV\u804b
I2887
sV\u62cc
I2746
sV\u864f
I3136
sV\u4f55
I287
sV\u6ed4
I2326
sV\u7559
I462
sV\u7b5d
I3137
sV\u5dde
I922
sV\u6765
I14
sV\u86e4
I2317
sV\u6d69
I2236
sV\u4fea
I4547
sV\u9971
I1651
sV\u7bf2
I5582
sV\u7583
I4360
sV\u618b
I2510
sV\u840e
I2495
sV\u6d93
I4361
sV\u5499
I1934
sV\u7518
I1800
sV\u9f9f
I2949
sV\u6120
I4773
sV\u542e
I2705
sV\u78b1
I3314
sV\u5a32
I3063
sV\u7eb5
I1721
sV\u90c1
I1702
sV\u96c5
I1448
sV\u5bc7
I2998
sV\u82cd
I1229
sV\u5558
I5583
sV\u5b5c
I4548
sV\u7fdf
I2859
sV\u736c
I5584
sV\u6b7c
I3789
sV\u5e8a
I783
sV\u620d
I3884
sV\u6811
I330
sV\u8f94
I3997
sV\u5317
I235
sV\u7096
I3790
sV\u5f1f
I699
sV\u7c9e
I5068
sV\u62a2
I1376
sV\u68a6
I584
sV\u8c29
I3715
sV\u6eaa
I1335
sV\u772f
I2665
sV\u94ae
I4362
sV\u9b47
I4774
sV\u5c49
I3270
sV\u814b
I3791
sV\u69d0
I2117
sV\u50d6
I5069
sV\u7459
I4549
sV\u56da
I2689
sV\u6c69
I3271
sV\u8de8
I1634
sV\u516b
I202
sV\u4eea
I1661
sV\u576f
I3467
sV\u74ee
I2263
sV\u60f6
I1870
sV\u4f7f
I195
sV\u6cfe
I5070
sV\u5200
I619
sV\u9102
I4550
sV\u5404
I476
sV\u5e08
I297
sV\u8912
I3315
sV\u9a9b
I4775
sV\u781c
I5585
sV\u86a3
I3885
sV\u4fa9
I4776
sV\u572e
I4363
sV\u7bb1
I1491
sV\u8638
I2950
sV\u883c
I5586
sV\u93c1
I5587
sV\u674e
I803
sV\u8bd1
I381
sV\u4ed3
I2467
sV\u5658
I3416
sV\u7cdf
I1626
sV\u8b66
I1066
sV\u51ed
I1565
sV\u94ef
I5588
sV\u7a70
I4092
sV\u7301
I5589
sV\u5182
I5590
sV\u7f09
I2831
sV\u808c
I2118
sV\u759a
I2915
sV\u7f9e
I1575
sV\u50ac
I1969
sV\u8fbe
I798
sV\u5341
I59
sV\u7ec8
I406
sV\u8e53
I5591
sV\u6cd4
I5592
sV\u53d6
I591
sV\u795d
I1595
sV\u6361
I1667
sV\u77ee
I2128
sV\u5e73
I270
sV\u63f6
I4777
sV\u65fa
I2577
sV\u5300
I2690
sV\u9002
I1173
sV\u5f08
I5593
sV\u6320
I3103
sV\u4ea9
I2382
sV\u70ad
I2154
sV\u4e3e
I644
sV\u57c3
I2285
sV\u94c5
I3138
sV\u7a46
I2367
sV\u80cd
I5594
sV\u9e5e
I4364
sV\u8c6a
I1627
sV\u50ed
I4551
sV\u95ef
I2286
sV\u8bfb
I434
sV\u697c
I759
sV\u7405
I3316
sV\u9f88
I4552
sV\u8d94
I3417
sV\u9619
I3573
sV\u8425
I1361
sV\u8e29
I1628
sV\u732b
I1168
sV\u6caa
I3272
sV\u51ac
I1214
sV\u752f
I5071
sV\u5bb0
I2304
sV\u6b3b
I4214
sV\u84ba
I4778
sV\u5241
I2916
sV\u73c0
I4093
sV\u52d6
I5072
sV\u785d
I3064
sV\u83e0
I4215
sV\u85e4
I1668
sV\u8fe8
I4553
sV\u536b
I1053
sV\u906d
I1231
sV\u76ee
I313
sV\u9a71
I1662
sV\u8679
I1935
sV\u887d
I5595
sV\u6893
I4216
sV\u9697
I3628
sV\u5199
I213
sV\u9c9b
I5596
sV\u9a9f
I3886
sV\u77ad
I5073
sV\u8038
I2223
sV\u614e
I2666
sV\u8dd1
I374
sV\u8bd5
I967
sV\u76d7
I2007
sV\u9556
I3716
sV\u7adf
I315
sV\u8d66
I3418
sV\u5df1
I135
sV\u7a74
I2101
sV\u6078
I4094
sV\u5782
I1287
sV\u9888
I1801
sV\u670d
I446
sV\u868c
I4554
sV\u7596
I5597
sV\u9119
I2273
sV\u5a1f
I4555
sV\u8521
I2402
sV\u67a2
I3998
sV\u4e27
I1355
sV\u6da6
I2075
sV\u91ae
I5598
sV\u83ba
I3792
sV\u5541
I5599
sV\u5345
I3104
sV\u72c4
I3203
sV\u5949
I1444
sV\u55d6
I3887
sV\u9edc
I5600
sV\u88e8
I3717
sV\u526f
I666
sV\u71ee
I3793
sV\u65f6
I31
sV\u8179
I1576
sV\u8f7d
I733
sV\u9602
I4779
sV\u658b
I2468
sV\u638f
I1430
sV\u7f1c
I5074
sV\u6324
I1085
sV\u7cb1
I453
sV\u8138
I168
sV\u94c1
I384
sV\u77d7
I3794
sV\u8662
I5601
sV\u56ed
I788
sV\u776c
I3032
sV\u8dfb
I5602
sV\u4efd
I1086
sV\u6f7c
I2237
sV\u8bff
I5075
sV\u7809
I3888
sV\u9988
I4365
sV\u6c11
I185
sV\u4e92
I818
sV\u5d1b
I5603
sV\u4f27
I5604
sV\u6ca6
I2810
sV\u752b
I2327
sV\u90ae
I2368
sV\u5bb4
I2192
sV\u6d3b
I237
sV\u9143
I5605
sV\u834f
I5076
sV\u6bd4
I299
sV\u7e5d
I4556
sV\u6869
I2601
sV\u536f
I3065
sV\u5973
I130
sV\u5600
I3368
sV\u830e
I2951
sV\u4e10
I2860
sV\u9497
I4217
sV\u989f
I5606
sV\u6620
I1669
sV\u6a28
I5077
sV\u532e
I4780
sV\u8238
I5607
sV\u52c3
I1474
sV\u634e
I2917
sV\u8fd1
I380
sV\u6d52
I2952
sV\u9756
I1759
sV\u7edb
I5078
sV\u915a
I5079
sV\u62e3
I2782
sV\u8f66
I241
sV\u5ff1
I3795
sV\u7701
I1060
sV\u5582
I1610
sV\u9a88
I3139
sV\u598a
I4781
sV\u848c
I5080
sV\u5417
I312
sV\u5e1b
I3574
sV\u8721
I2224
sV\u762b
I2747
sV\u54ac
I768
sV\u7a33
I1498
sV\u81ba
I3718
sV\u8bbe
I1031
sV\u5145
I1072
sV\u4f51
I2999
sV\u5bde
I1545
sV\u6761
I206
sV\u80e4
I3999
sV\u4fe6
I5081
sV\u566b
I4000
sV\u9975
I4095
sV\u4f10
I2020
sV\u6b93
I3174
sV\u8c12
I3517
sV\u9f9b
I4001
sV\u6124
I1149
sV\u952c
I5608
sV\u522e
I1834
sV\u7eb1
I2066
sV\u62b9
I1401
sV\u8338
I2832
sV\u6cbd
I4557
sV\u8d3c
I1871
sV\u96c1
I1883
sV\u84cd
I4218
sV\u624e
I939
sV\u88d5
I2762
sV\u7fdb
I5609
sV\u79df
I1752
sV\u63e3
I2748
sV\u8e66
I2177
sV\u54ed
I466
sV\u6d7c
I5610
sV\u5482
I3140
sV\u5e86
I1768
sV\u8f90
I4558
sV\u7696
I3518
sV\u5f1b
I3226
sV\u591f
I686
sV\u712f
I5082
sV\u92ae
I4782
sV\u7b33
I5083
sV\u9cb2
I5084
sV\u86b6
I5611
sV\u80ba
I2783
sV\u693f
I4366
sV\u5a49
I2628
sV\u65cc
I3317
sV\u7259
I684
sV\u50da
I2369
sV\u87e0
I4559
sV\u8be8
I4219
sV\u72ee
I3105
sV\u5b73
I3889
sV\u9875
I1130
sV\u60fa
I3273
sV\u5408
I337
sV\u9a97
I1589
sV\u5d99
I4220
sV\u539d
I5612
sV\u4fa5
I3369
sV\u6e24
I4221
sV\u6428
I4560
sV\u7bad
I1722
sV\u5d2e
I5613
sV\u77b5
I5614
sV\u9634
I825
sV\u4f3a
I3227
sV\u52c7
I1061
sV\u8bcd
I606
sV\u6d4e
I1480
sV\u70db
I1982
sV\u525c
I3719
sV\u76df
I2155
sV\u955e
I4561
sV\u6ce3
I2245
sV\u62e7
I2238
sV\u876a
I5615
sV\u9eef
I2725
sV\u7070
I822
sV\u627c
I3629
sV\u7901
I4783
sV\u9880
I5616
sV\u7f05
I3890
sV\u9488
I1422
sV\u6715
I5085
sV\u7f9a
I5086
sV\u561f
I1640
sV\u8921
I3419
sV\u67aa
I293
sV\u7433
I2578
sV\u603b
I265
sV\u5941
I3796
sV\u7ec4
I1131
sV\u7d59
I5617
sV\u9cd8
I5618
sV\u586b
I1908
sV\u9171
I2178
sV\u5473
I385
sV\u837d
I5619
sV\u5f04
I763
sV\u7387
I1760
sV\u9006
I2214
sV\u8c0e
I2403
sV\u6593
I3066
sV\u8212
I1525
sV\u529d
I1418
sV\u731c
I1423
sV\u6920
I3630
sV\u8da3
I1153
sV\u4ea5
I2526
sV\u6cb9
I654
sV\u8d38
I3318
sV\u4e3a
I30
sV\u62bd
I778
sV\u4fcf
I2417
sV\u6252
I2511
sV\u5d58
I5087
sV\u9e5a
I5620
sV\u535c
I1991
sV\u56f5
I4002
sV\u8bf7
I498
sV\u6d78
I1884
sV\u81fb
I4096
sV\u7801
I1653
sV\u9980
I4784
sV\u9f84
I1872
sV\u7409
I3468
sV\u6615
I5088
sV\u5b17
I5089
sV\u571f
I317
sV\u749e
I4097
sV\u60a6
I1735
sV\u51b0
I868
sV\u7533
I1687
sV\u6b37
I5621
sV\u8eba
I1013
sV\u79c0
I1305
sV\u5e45
I1380
sV\u75c8
I5090
sV\u67d4
I1067
sV\u725d
I4222
sV\u54de
I3420
sV\u6861
I5622
sV\u8fe4
I4562
sV\u6469
I1174
sV\u9a6d
I3575
sV\u72f2
I4223
sV\u9675
I2450
sV\u8c79
I2469
sV\u827d
I5623
sV\u5c04
I940
sV\u5608
I3106
sV\u6c8f
I3228
sV\u9897
I1044
sV\u5f99
I4003
sV\u949f
I679
sV\u6c24
I3720
sV\u6628
I1288
sV\u75b5
I3721
sV\u6fb9
I5091
sV\u50c7
I4367
sV\u754a
I5092
sV\u85d5
I4224
sV\u505c
I601
sV\u975e
I279
sV\u60e7
I1774
sV\u786c
I842
sV\u53f1
I3631
sV\u96f3
I4225
sV\u55f5
I4368
sV\u82fb
I4563
sV\u607c
I1499
sV\u84ff
I4369
sV\u5982
I85
sV\u5386
I636
sV\u7709
I1090
sV\u558a
I583
sV\u690d
I2156
sV\u6311
I1297
sV\u9f19
I5093
sV\u521b
I624
sV\u541f
I1551
sV\u8d25
I996
sV\u6837
I69
sV\u8bb6
I2555
sV\u643f
I4370
sV\u9e43
I3519
sV\u9047
I806
sV\u76c8
I2287
sV\u62d0
I1629
sV\u7f59
I5624
sV\u9ed8
I782
sV\u6d65
I5625
sV\u996d
I443
sV\u5c6f
I979
sV\u7fee
I5626
sV\u817d
I5627
sV\u5708
I784
sV\u6b8b
I1015
sV\u8012
I5094
sV\u9997
I4371
sV\u5e99
I1646
sV\u7f18
I1189
sV\u6b20
I1607
sV\u8fa3
I1601
sV\u6728
I362
sV\u5e2e
I832
sV\u9ac1
I4226
sV\u5fc3
I75
sV\u9cc5
I3722
sV\u51c7
I4564
sV\u96c9
I3891
sV\u6e4e
I4372
sV\u82d1
I3421
sV\u6052
I2383
sV\u515c
I2102
sV\u8862
I5628
sV\u97f3
I375
sV\u7574
I4785
sV\u6f78
I4373
sV\u4e8e
I55
sV\u6211
I5
sV\u7a96
I3723
sV\u901d
I1885
sV\u68a2
I1890
sV\u8c25
I3274
sV\u8629
I5095
sV\u7b2b
I5629
sV\u7d2f
I1232
sV\u653f
I463
sV\u5c45
I804
sV\u5649
I5630
sV\u69cc
I3576
sV\u8d4f
I1220
sV\u63d0
I370
sV\u5ad6
I3469
sV\u91dc
I3892
sV\u56de
I107
sV\u6a61
I3370
sV\u8be0
I4565
sV\u8de4
I4004
sV\u7eee
I5631
sV\u5773
I3893
sV\u6cfa
I5632
sV\u66fe
I266
sV\u5a04
I3577
sV\u7687
I908
sV\u8712
I3204
sV\u5999
I1069
sV\u7818
I4005
sV\u949b
I4374
sV\u6028
I1362
sV\u9e2c
I5096
sV\u592e
I1552
sV\u75b1
I4786
sV\u863c
I5633
sV\u7f42
I4227
sV\u91c9
I4006
sV\u7ed7
I5634
sV\u5858
I3067
sV\u565c
I1846
sV\u68e3
I4375
sV\u836a
I3894
sV\u9aef
I4376
sV\u7470
I2726
sV\u53f5
I4377
sV\u5f82
I5635
sV\u9a84
I2264
sV\u7109
I2579
sV\u9088
I5097
sV\u541b
I716
sV\u8d21
I2602
sV\u63aa
I2353
sV\u97b2
I5098
sV\u8bba
I212
sV\u623f
I201
sV\u9647
I4098
sV\u5149
I161
sV\u70c8
I819
sV\u4f4d
I391
sV\u62d4
I1345
sV\u7959
I5636
sV\u98d8
I1124
sV\u6b65
I430
sV\u7787
I5099
sV\u5899
I536
sV\u6b24
I3229
sV\u7ead
I4007
sV\u9f2c
I5100
sV\u5632
I1703
sV\u9ac5
I3175
sV\u684e
I4228
sV\u84d1
I3107
sV\u6652
I2008
sV\u82d5
I4566
sV\u5958
I5101
sV\u75db
I513
sV\u8ff7
I920
sV\u6978
I4567
sV\u85fb
I3520
sV\u5486
I2784
sV\u6e0d
I3230
sV\u6215
I4787
sV\u5f17
I2451
sV\u551b
I3470
sV\u961d
I5102
sV\u8c21
I4378
sV\u6ea2
I1992
sV\u7d2b
I1459
sV\u653b
I923
sV\u80be
I4099
sV\u5c41
I962
sV\u8d4b
I2512
sV\u4e4d
I3319
sV\u8153
I4568
sV\u5ada
I5637
sV\u6c61
I1704
sV\u8be4
I5103
sV\u6069
I1530
sV\u9e6d
I4008
sV\u5173
I249
sV\u76f2
I2470
sV\u867d
I321
sV\u7a83
I2076
sV\u7487
I5104
sV\u9706
I3578
sV\u5208
I4569
sV\u688f
I4100
sV\u6293
I879
sV\u5b99
I2513
sV\u559d
I396
sV\u6e20
I2953
sV\u4f36
I2629
sV\u65bd
I1501
sV\u843c
I5638
sV\u54c7
I2077
sV\u4ecb
I1169
sV\u714a
I4788
sV\u87d1
I5105
sV\u81d5
I5639
sV\u7cd7
I5640
sV\u76db
I1022
sV\u545c
I1118
sV\u70df
I438
sV\u4e60
I1080
sV\u8d62
I2141
sV\u7f01
I4229
sV\u5d82
I4789
sV\u7905
I5106
sV\u9884
I1002
sV\u8c8c
I1611
sV\u6115
I3231
sV\u561b
I1341
sV\u501f
I974
sV\u8925
I2833
sV\u5cac
I4790
sV\u8fb6
I5641
sV\u603f
I5642
sV\u83be
I5643
sV\u72c8
I2785
sV\u8e4b
I2861
sV\u6ccc
I3724
sV\u5fd6
I4791
sV\u9ad8
I110
sV\u59da
I3797
sV\u94dc
I1182
sV\u88e4
I1052
sV\u7bee
I2418
sV\u9175
I3632
sV\u5f00
I92
sV\u5904
I263
sV\u5308
I3176
sV\u900a
I3108
sV\u549d
I3141
sV\u751c
I1346
sV\u4ea1
I1055
sV\u6f20
I1886
sV\u8ba3
I4101
sV\u6924
I4102
sV\u6328
I1891
sV\u76b1
I1736
sV\u9730
I4570
sV\u853c
I3471
sV\u86d1
I5644
sV\u5b58
I767
sV\u77db
I2142
sV\u555c
I4571
sV\u4f60
I15
sV\u8c62
I3579
sV\u65e7
I477
sV\u806a
I1590
sV\u5ced
I3472
sV\u56f1
I3725
sV\u50f5
I2054
sV\u8df7
I3177
sV\u5c82
I1744
sV\u9984
I4103
sV\u6015
I308
sV\u7f2b
I5107
sV\u613f
I560
sV\u82be
I5108
sV\u9547
I1377
sV\u73c8
I5645
sV\u6dcc
I2354
sV\u67d0
I985
sV\u61d4
I4792
sV\u5ed6
I4572
sV\u6865
I1008
sV\u6269
I2336
sV\u5373
I231
sV\u74f2
I5109
sV\u9075
I2556
sV\u8a79
I4230
sV\u68fa
I1298
sV\u62fe
I1431
sV\u6000
I738
sV\u8785
I5110
sV\u568f
I3142
sV\u9991
I4104
sV\u8116
I871
sV\u6599
I653
sV\u871a
I5646
sV\u8d1e
I3033
sV\u77a5
I2328
sV\u5624
I3422
sV\u86af
I3726
sV\u652e
I4793
sV\u6b32
I1003
sV\u4fb5
I1802
sV\u7136
I46
sV\u773a
I3178
sV\u5bbd
I1278
sV\u76cf
I2305
sV\u6458
I1630
sV\u8bdd
I113
sV\u63ed
I1566
sV\u9176
I5647
sV\u75f9
I3371
sV\u5478
I2862
sV\u8403
I4009
sV\u6382
I3798
sV\u8a07
I4231
sV\u6986
I2055
sV\u900b
I5648
sV\u530d
I5649
sV\u5f15
I589
sV\u6217
I4794
sV\u53a2
I1892
sV\u9ca8
I4010
sV\u5faa
I2384
sV\u832d
I4795
sV\u62ac
I859
sV\u68b0
I2834
sV\u5237
I1495
sV\u9539
I2603
sV\u89c6
I739
sV\u7f55
I2318
sV\u67da
I4796
sV\u6dde
I4797
sV\u9463
I5650
sV\u79e6
I1502
sV\u5d69
I5111
sV\u606b
I5112
sV\u666f
I555
sV\u88f0
I4573
sV\u51f6
I1366
sV\u94f8
I2835
sV\u57fa
I988
sV\u5dfe
I2009
sV\u6100
I4379
sV\u8c89
I4798
sV\u9891
I2355
sV\u7f14
I5113
sV\u9e2a
I4380
sV\u8db3
I598
sV\u4eb5
I4105
sV\u65c3
I4574
sV\u8d48
I5651
sV\u4fdf
I3232
sV\u90e1
I3275
sV\u55e3
I3473
sV\u62ed
I2863
sV\u68f1
I2604
sV\u5578
I2452
sV\u8b07
I5652
sV\u6886
I2727
sV\u520d
I3580
sV\u970f
I3895
sV\u748e
I5114
sV\u5811
I4232
sV\u7a92
I3423
sV\u5e15
I2954
sV\u52a2
I5653
sV\u63ac
I3109
sV\u8e35
I4106
sV\u88c6
I2977
sV\u6c49
I367
sV\u724d
I4381
sV\u53cc
I412
sV\u94ce
I3424
sV\u59d0
I571
sV\u6cde
I3799
sV\u9563
I4382
sV\u7eea
I1356
sV\u676f
I1049
sV\u95f8
I3727
sV\u56fa
I1183
sV\u8585
I5654
sV\u8f89
I1520
sV\u918d
I5655
sV\u548f
I3320
sV\u5e93
I2630
sV\u851a
I3276
sV\u5220
I2404
sV\u82ab
I5656
sV\u8e48
I2434
sV\u574e
I3321
sV\u7ed3
I368
sV\u876e
I5657
sV\u79fd
I2864
sV\u6b86
I3277
sV\u778e
I1737
sV\u889c
I2356
sV\u51a2
I3633
sV\u7827
I5658
sV\u5ba6
I3322
sV\u60ac
I1694
sV\u8d35
I880
sV\u9739
I4107
sV\u5c3f
I1402
sV\u81c2
I1596
sV\u6545
I361
sV\u8bc6
I480
sV\u7b51
I2078
sV\u63d6
I3233
sV\u5361
I1847
sV\u5565
I1769
sV\u7be6
I4799
sV\u5f69
I1032
sV\u626b
I1463
sV\u53f6
I615
sV\u5ffe
I4233
sV\u538b
I718
sV\u558f
I4575
sV\u9a91
I1017
sV\u8e1e
I3521
sV\u5320
I1983
sV\u9022
I1786
sV\u5524
I1738
sV\u83ab
I641
sV\u85af
I3372
sV\u7236
I157
sV\u8340
I5115
sV\u914c
I3800
sV\u564e
I3179
sV\u86d9
I2978
sV\u7360
I3143
sV\u9ee9
I5659
sV\u7f68
I5660
sV\u60ed
I2763
sV\u8872
I5116
sV\u6cf5
I5661
sV\u76f9
I3581
sV\u8703
I4800
sV\u4e09
I83
sV\u500d
I2202
sV\u950f
I5662
sV\u768e
I3110
sV\u5a11
I3896
sV\u9f13
I790
sV\u61ac
I4011
sV\u8c35
I5663
sV\u6241
I1787
sV\u80c2
I5664
sV\u6445
I5117
sV\u51cc
I2010
sV\u7a51
I5118
sV\u5bd0
I4801
sV\u98d2
I4802
sV\u62d6
I1016
sV\u6ede
I2648
sV\u9967
I4383
sV\u7ae6
I5665
sV\u81ec
I4576
sV\u8bf0
I4234
sV\u54fa
I3522
sV\u6400
I2811
sV\u8385
I4803
sV\u6808
I3474
sV\u548b
I2728
sV\u978d
I3034
sV\u760c
I5666
sV\u5893
I1206
sV\u7a14
I5667
sV\u4e1c
I196
sV\u75a1
I5668
sV\u5420
I2667
sV\u5224
I1320
sV\u82af
I3897
sV\u5fbd
I1984
sV\u793e
I278
sV\u8244
I5119
sV\u6ec7
I5669
sV\u964c
I2288
sV\u5f52
I1070
sV\u8fdd
I2225
sV\u816e
I1770
sV\u6df1
I383
sV\u8f72
I3728
sV\u6bf5
I4577
sV\u9576
I2580
sV\u71f9
I4578
sV\u5e7c
I1688
sV\u8003
I954
sV\u6b8a
I1835
sV\u8098
I3898
sV\u6c1b
I2729
sV\u8e9c
I4804
sV\u6a1f
I3475
sV\u94a0
I5120
sV\u57a2
I3068
sV\u5baa
I3144
sV\u8d31
I2357
sV\u70b8
I1283
sV\u5c3b
I5670
sV\u6345
I2471
sV\u8bca
I2786
sV\u91ce
I575
sV\u5ad4
I5671
sV\u65d6
I4384
sV\u4f5d
I4235
sV\u5561
I2419
sV\u9063
I2836
sV\u77e2
I2649
sV\u9e67
I5672
sV\u626f
I1456
sV\u7c7b
I454
sV\u7a7f
I475
sV\u6500
I2472
sV\u558b
I3205
sV\u968d
I3899
sV\u5993
I2539
sV\u9a95
I5121
sV\u7b14
I649
sV\u5520
I2527
sV\u6e32
I3729
sV\u7436
I4236
sV\u783e
I4579
sV\u504e
I3373
sV\u9b54
I1670
sV\u6f5c
I2079
sV\u94e1
I3374
sV\u5fe7
I1424
sV\u7968
I1512
sV\u6cf1
I4580
sV\u8e72
I1506
sV\u70f9
I4012
sV\u5178
I1133
sV\u7efd
I2496
sV\u5f7c
I1496
sV\u987e
I912
sV\u6682
I1475
sV\u6c86
I5673
sV\u950b
I1723
sV\u708e
I2226
sV\u5c11
I261
sV\u6717
I1724
sV\u8198
I3900
sV\u6d1b
I1993
sV\u8f9c
I3000
sV\u7f27
I4385
sV\u99a8
I2888
sV\u8c31
I2337
sV\u6bb4
I3323
sV\u9e3d
I1705
sV\u7fbc
I4237
sV\u6441
I5674
sV\u90ce
I1321
sV\u8757
I3582
sV\u8d5b
I2050
sV\u62da
I2889
sV\u4e5d
I129
sV\u9163
I3324
sV\u5265
I1428
sV\u656b
I5122
sV\u636f
I5123
sV\u4ef2
I2203
sV\u8bf4
I11
sV\u52fa
I2289
sV\u6600
I4805
sV\u6004
I4238
sV\u9995
I5124
sV\u7814
I1038
sV\u811a
I316
sV\u6d9d
I4108
sV\u9522
I3583
sV\u7ba9
I3035
sV\u80af
I885
sV\u6d32
I1451
sV\u7736
I2605
sV\u9ebb
I639
sV\u7b3e
I5125
sV\u4f46
I62
sV\u8a48
I4386
sV\u534e
I638
sV\u6258
I835
sV\u8ddd
I1591
sV\u6c5c
I4806
sV\u65ed
I4013
sV\u4e70
I512
sV\u9776
I4014
sV\u960b
I4807
sV\u900f
I902
sV\u5f11
I3634
sV\u5915
I1177
sV\u7c27
I3801
sV\u9aa8
I737
sV\u59aa
I4239
sV\u64ac
I3584
sV\u7cbc
I4581
sV\u6b49
I2290
sV\u89ca
I5675
sV\u7f51
I1809
sV\u8457
I595
sV\u5761
I2274
sV\u75e2
I5126
sV\u5165
I347
sV\u7fe6
I4387
sV\u5b69
I344
sV\u84ec
I1753
sV\u606f
I597
sV\u88f4
I3069
sV\u51fa
I32
sV\u8681
I2650
sV\u6700
I184
sV\u8a89
I2215
sV\u578b
I1994
sV\u5b93
I3901
sV\u9e26
I1810
sV\u87ab
I5676
sV\u622e
I2435
sV\u8bb3
I2668
sV\u6c32
I3730
sV\u6dc7
I3111
sV\u954c
I4388
sV\u524e
I4389
sV\u9f50
I865
sV\u7bd3
I2420
sV\u9954
I5677
sV\u6d5c
I5127
sV\u53e3
I145
sV\u7164
I2011
sV\u5de7
I1293
sV\u4f70
I5678
sV\u68f5
I1223
sV\u9676
I1647
sV\u5378
I2581
sV\u9a7e
I2473
sV\u8303
I1392
sV\u6482
I4582
sV\u6e86
I5128
sV\u540d
I177
sV\u5e11
I5129
sV\u9b13
I3375
sV\u7c92
I1602
sV\u5815
I2119
sV\u8398
I3635
sV\u97a0
I2955
sV\u7d27
I455
sV\u5ea6
I564
sV\u8e31
I3036
sV\u69b4
I2026
sV\u5537
I3902
sV\u73b8
I4390
sV\u6641
I5130
sV\u55cc
I4808
sV\u5fd0
I3636
sV\u7855
I2540
sV\u59d4
I926
sV\u60da
I2669
sV\u895f
I2436
sV\u74e2
I2787
sV\u5065
I1570
sV\u7ee6
I4583
sV\u8ff0
I1248
sV\u8981
I34
sV\u6800
I4109
sV\u8f85
I3234
sV\u5e8f
I1336
sV\u5428
I4240
sV\u88ab
I137
sV\u8eaf
I2265
sV\u6d2e
I5131
sV\u6332
I3802
sV\u9ab7
I3325
sV\u90bb
I1811
sV\u7f3a
I950
sV\u753e
I5132
sV\u8840
I357
sV\u8e44
I1063
sV\u62c7
I2837
sV\u78cb
I4110
sV\u7ecf
I118
sV\u9050
I3523
sV\u5352
I2103
sV\u9654
I5679
sV\u83dd
I5133
sV\u625c
I4241
sV\u95e9
I3637
sV\u9976
I2291
sV\u8c03
I791
sV\u6b82
I5680
sV\u829c
I3112
sV\u661f
I796
sV\u98a0
I1712
sV\u5ba2
I596
sV\u94a8
I5134
sV\u6aac
I4809
sV\u8131
I765
sV\u66b4
I1154
sV\u563f
I2143
sV\u8bc2
I5135
sV\u4ec4
I3524
sV\u81c6
I5681
sV\u87ca
I4810
sV\u5acc
I1503
sV\u56d4
I3903
sV\u686b
I5682
sV\u80f0
I5683
sV\u7a77
I1235
sV\u55fe
I4111
sV\u8881
I2012
sV\u9091
I4112
sV\u7110
I5684
sV\u8816
I5685
sV\u6c99
I731
sV\u78a1
I3638
sV\u7ea5
I5136
sV\u9026
I5137
sV\u8f44
I5138
sV\u79cb
I623
sV\u5c4e
I1924
sV\u7960
I2956
sV\u94e9
I4242
sV\u8272
I179
sV\u9876
I729
sV\u5011
I5686
sV\u7292
I5139
sV\u4e9a
I1184
sV\u671f
I329
sV\u4f2f
I915
sV\u5b37
I5687
sV\u6841
I4811
sV\u4fc4
I909
sV\u80c6
I1224
sV\u86ca
I3639
sV\u5bcc
I973
sV\u9cce
I4812
sV\u57d4
I3731
sV\u6eda
I852
sV\u64de
I3425
sV\u70e6
I986
sV\u696b
I4113
sV\u8bec
I2056
sV\u7b77
I2385
sV\u58f6
I1950
sV\u5efa
I810
sV\u777f
I4584
sV\u8d85
I1210
sV\u998d
I2788
sV\u780c
I3525
sV\u5693
I2246
sV\u4e18
I1695
sV\u7ba1
I470
sV\u5a20
I5140
sV\u5c24
I1193
sV\u77a9
I5141
sV\u51bd
I3732
sV\u94bf
I5142
sV\u7acb
I305
sV\u8fd9
I13
sV\u6e58
I3001
sV\u50e7
I2453
sV\u97e9
I2168
sV\u69ed
I5688
sV\u8f6e
I1033
sV\u5e78
I743
sV\u6982
I826
sV\u590d
I508
sV\u7f8e
I259
sV\u6817
I2497
sV\u621b
I5143
sV\u809c
I5689
sV\u9ca4
I3376
sV\u53a6
I1788
sV\u7eb8
I553
sV\u523b
I433
sV\u70bc
I2067
sV\u89c2
I662
sV\u6d45
I1387
sV\u6749
I3733
sV\u54d4
I3640
sV\u8857
I572
sV\u4f59
I410
sV\u67de
I4813
sV\u75ea
I3526
sV\u4fee
I1034
sV\u4f83
I3641
sV\u6708
I48
sV\u5b8b
I887
sV\u988d
I3527
sV\u790c
I4391
sV\u5793
I5144
sV\u9495
I5690
sV\u4f18
I1404
sV\u8c1a
I3642
sV\u7ca5
I2812
sV\u5d24
I5691
sV\u5728
I8
sV\u8bab
I3734
sV\u87b3
I4814
sV\u5eb9
I5692
sV\u763e
I2813
sV\u8d44
I792
sV\u8748
I3528
sV\u6f58
I3037
sV\u9ae1
I4815
sV\u7b60
I5693
sV\u96e9
I5145
sV\u7768
I4816
sV\u62f1
I1848
sV\u9a76
I2292
sV\u70fd
I5146
sV\u517c
I1631
sV\u5211
I1648
sV\u9713
I3904
sV\u7092
I2514
sV\u5415
I2437
sV\u8f98
I2730
sV\u631b
I3180
sV\u819c
I2731
sV\u7f23
I5147
sV\u54aa
I2169
sV\u8231
I2749
sV\u63b0
I3643
sV\u5937
I1739
sV\u9e39
I5148
sV\u7fb8
I5694
sV\u533b
I785
sV\u553f
I5695
sV\u88c2
I1425
sV\u84ca
I4817
sV\u9ece
I1970
sV\u7455
I4015
sV\u55d4
I3905
sV\u4e59
I1289
sV\u835b
I5696
sV\u5c65
I2421
sV\u5669
I3529
sV\u6773
I3803
sV\u7977
I2865
sV\u56fe
I663
sV\u8d81
I1849
sV\u7410
I2814
sV\u679d
I1045
sV\u9526
I2422
sV\u5028
I5149
sV\u59b9
I1242
sV\u94bb
I1138
sV\u7b3a
I4114
sV\u9e4c
I4392
sV\u594e
I4243
sV\u4ed7
I1597
sV\u65f1
I2815
sV\u77fd
I5150
sV\u567c
I3235
sV\u8803
I4818
sV\u7792
I2306
sV\u5315
I4393
sV\u6e17
I2691
sV\u869c
I4585
sV\u621f
I3426
sV\u9ca0
I4819
sV\u7823
I4244
sV\u9aa4
I2918
sV\u90a8
I3113
sV\u64b0
I1850
sV\u8335
I3427
sV\u5e37
I4586
sV\u543b
I1507
sV\u523f
I5697
sV\u6d41
I222
sV\u8fc2
I3206
sV\u83ca
I1903
sV\u54d0
I2919
sV\u6dd6
I3804
sV\u845b
I2104
sV\u75e6
I5698
sV\u6073
I2957
sV\u82f4
I4820
sV\u5bfa
I1951
sV\u8089
I527
sV\u6108
I1161
sV\uff0c
I0
sV\u5b8f
I2358
sV\u8c16
I5699
sV\u9e22
I5700
sV\u7aa5
I2920
sV\u4ead
I1828
sV\u8baf
I2170
sV\u81b3
I3644
sV\u8d40
I5701
sV\u9550
I4115
sV\u4fd7
I1253
sV\u88d9
I1909
sV\u675c
I2129
sV\u59e3
I5702
sV\u7168
I4821
sV\u4f6c
I3906
sV\u886e
I5703
sV\u5978
I1654
sV\u9a7a
I5151
sV\u577c
I5152
sV\u8707
I4587
sV\u628a
I86
sV\u788e
I927
sV\u5411
I225
sV\u631f
I2750
sV\u54a6
I4394
sV\u52aa
I1438
sV\u65b0
I190
sV\u8235
I4822
sV\u63b4
I4588
sV\u553b
I3377
sV\u533f
I3114
sV\u6c41
I2157
sV\u5fcc
I2171
sV\u98ce
I239
sV\u55d0
I5153
sV\u96d2
I4823
sV\u53d4
I970
sV\u835f
I4589
sV\u5c61
I2789
sV\u9963
I4824
sV\u7ee2
I3907
sV\u74e6
I1388
sV\u8389
I3735
sV\u6208
I2275
sV\u5e8b
I4395
sV\u7c0c
I3428
sV\u9791
I5154
sV\u7610
I5704
sV\u5293
I5705
sV\u891a
I3908
sV\u7fa1
I2474
sV\u5824
I1409
sV\u73a9
I789
sV\u5228
I3181
sV\u8eab
I112
sV\u82b3
I1789
sV\u7f36
I5155
sV\u5bb9
I439
sV\u793a
I838
sV\u55bd
I2670
sV\u733e
I2631
sV\u8e40
I4825
sV\u7ecb
I5706
sV\u9650
I1381
sV\u8bd9
I4116
sV\u6a58
I3530
sV\u5ae3
I3645
sV\u54e7
I2515
sV\u67f1
I1964
sV\u8572
I5707
sV\u61f5
I3909
sV\u997a
I3002
sV\u547c
I633
sV\u4f01
I2438
sV\u6d82
I1119
sV\u849c
I2958
sV\u7a23
I2890
sV\u98a4
I1426
sV\u57a6
I4590
sV\u4e2b
I2632
sV\u8d2d
I2193
sV\u60b4
I3476
sV\u7ab8
I3326
sV\u563b
I1745
sV\u4ec0
I103
sV\u87c6
I2276
sV\u6349
I1761
sV\u81ca
I3145
sV\u7751
I2454
sV\u5965
I2105
sV\u86f0
I3531
sV\u6273
I2732
sV\u767b
I1023
sV\u707f
I1091
sV\u8e81
I2216
sV\u8885
I2516
sV\u6308
I4826
sV\u5f8b
I1299
sV\u9c8d
I5708
sV\u9095
I5709
sV\u821e
I916
sV\u5f20
I245
sV\u5924
I4827
sV\u8fab
I1553
sV\u783a
I4117
sV\u54bd
I1497
sV\u8944
I3429
sV\u84dd
I378
sV\u7af9
I1092
sV\u987a
I711
sV\u557c
I2370
sV\u4e01
I1531
sV\u6c82
I2475
sV\u9f0b
I4245
sV\u6d17
I935
sV\u671b
I311
sV\u611f
I192
sV\u5ca2
I5710
sV\u4f2b
I3805
sV\u8c2d
I3477
sV\u67b0
I5711
sV\u7bb8
I5712
sV\u75bc
I1663
sV\u513f
I74
sV\u6845
I3806
sV\u86c6
I3146
sV\u6249
I4591
sV\u7c4d
I1194
sV\u68da
I1419
sV\u5e61
I3585
sV\u5269
I1405
sV\u81f4
I875
sV\u5ef6
I1836
sV\u95fc
I5156
sV\u52fe
I1504
sV\u620c
I3736
sV\u8f95
I3327
sV\u6e14
I3378
sV\u7599
I2359
sV\u7b9d
I3910
sV\u5a1c
I2838
sV\u67a5
I5713
sV\u6da9
I2839
sV\u673a
I407
sV\u6d3e
I667
sV\u9644
I1198
sV\u60cb
I4246
sV\u6cd3
I4828
sV\u6664
I4016
sV\u8de9
I5714
sV\u73ed
I1142
sV\u5e74
I44
sV\u7f8a
I1275
sV\u8c13
I581
sV\u6b92
I4396
sV\u9498
I5715
sV\u9a9c
I4397
sV\u80a0
I1577
sV\u86a4
I3911
sV\u4faa
I4829
sV\u72ac
I2106
sV\u78b0
I982
sV\u64b8
I3912
sV\u634d
I4247
sV\u8bd2
I4118
sV\u4ed4
I1780
sV\u5b5d
I1108
sV\u8463
I2338
sV\u706b
I290
sV\u766f
I4398
sV\u7c73
I807
sV\u6e7f
I1259
sV\u5583
I2651
sV\u9685
I3147
sV\u7704
I5157
sV\u5b87
I2204
sV\u828d
I4119
sV\u6f14
I670
sV\u9016
I5716
sV\u961a
I5717
sV\u7a9d
I1099
sV\u8222
I5158
sV\u8e2a
I1837
sV\u52ad
I4592
sV\u97af
I4120
sV\u5eb5
I1859
sV\u83b7
I1560
sV\u5242
I3207
sV\u7bc7
I345
sV\u61cb
I4399
sV\u67cf
I2498
sV\u53d7
I327
sV\u94d9
I4121
sV\u80e1
I458
sV\u72ed
I2247
sV\u7ef5
I1803
sV\u9503
I4017
sV\u5605
I3807
sV\u5c09
I3430
sV\u4e15
I2790
sV\u7317
I4830
sV\u7f1f
I5718
sV\u6b27
I1406
sV\u572f
I5159
sV\u9e35
I4248
sV\u51c0
I1202
sV\u624d
I194
sV\u6851
I1804
sV\u62e2
I1729
sV\u54ee
I2891
sV\u6377
I1178
sV\u8bfc
I4593
sV\u9f89
I4594
sV\u4e93
I5719
sV\u6c14
I123
sV\u5618
I2557
sV\u951a
I4831
sV\u65a5
I1754
sV\u8d2a
I2080
sV\u94af
I5720
sV\u6f3e
I3070
sV\u62cb
I3115
sV\u5d4a
I4832
sV\u804c
I951
sV\u6ed3
I3478
sV\u83e1
I5721
sV\u6260
I5722
sV\u8fe9
I4833
sV\u7bf1
I3328
sV\u9972
I1740
sV\u69fd
I2360
sV\u840f
I5723
sV\u9698
I4249
sV\u989c
I1115
sV\u7c1f
I5160
sV\u522b
I189
sV\u70ac
I3737
sV\u542f
I1713
sV\u68bc
I5724
sV\u7545
I2386
sV\u54c4
I1860
sV\u89d2
I610
sV\u9057
I1018
sV\u4f69
I1790
sV\u86f8
I4834
sV\u88fc
I5161
sV\u4ffe
I3479
sV\u5783
I2652
sV\u3002
I2
sV\u9485
I4835
sV\u7504
I4836
sV\u5987
I461
sV\u7f08
I5725
sV\u7699
I4400
sV\u591c
I340
sV\u62a1
I2866
sV\u8c2a
I5162
sV\u762e
I5726
sV\u643a
I2582
sV\u8dbf
I4401
sV\u9544
I5727
sV\u5a46
I565
sV\u5c4a
I3738
sV\u814c
I4122
sV\u65cf
I882
sV\u8d54
I2194
sV\u795c
I4123
sV\u82e1
I5163
sV\u70ed
I379
sV\u516c
I215
sV\u5b70
I4124
sV\u8276
I5728
sV\u66f9
I891
sV\u847a
I5729
sV\u8e7e
I5164
sV\u5201
I1139
sV\u9798
I3586
sV\u7b1b
I2405
sV\u549a
I2227
sV\u5e9e
I754
sV\u83a0
I5165
sV\u8fa8
I2021
sV\u902d
I4595
sV\u71ac
I2130
sV\u552f
I941
sV\u55c4
I5730
sV\u604d
I2039
sV\u6c55
I5731
sV\u9157
I5166
sV\u5659
I3003
sV\u7ede
I2706
sV\u8763
I4018
sV\u4e69
I3236
sV\u6cea
I577
sV\u56ee
I5732
sV\u6177
I2733
sV\u6b7b
I166
sV\u5e87
I3379
sV\u878d
I1616
sV\u660c
I2476
sV\u9516
I5733
sV\u7199
I2455
sV\u5018
I786
sV\u5e1c
I3329
sV\u65a1
I4250
sV\u8722
I4125
sV\u63a5
I363
sV\u8d26
I2477
sV\u5bb5
I3587
sV\u6536
I421
sV\u633a
I1432
sV\u5742
I4596
sV\u7ec7
I1215
sV\u68d3
I5734
sV\u56d7
I5167
sV\u6868
I3278
sV\u77ed
I764
sV\u566c
I3646
sV\u5a74
I2158
sV\u5501
I4837
sV\u9003
I900
sV\u5305
I528
sV\u840b
I5168
sV\u618e
I1925
sV\u8813
I5735
sV\u539a
I1014
sV\u599e
I4838
sV\u82a4
I5736
sV\u542b
I1363
sV\u972d
I3739
sV\u60b8
I3532
sV\u54c0
I1103
sV\u7949
I5737
sV\u6d51
I1617
sV\u5f5d
I3647
sV\u67e2
I4019
sV\u6de6
I4126
sV\u726f
I5169
sV\u80f8
I956
sV\u5f87
I5738
sV\u9889
I2653
sV\u868d
I5739
sV\u7099
I3533
sV\u981e
I5740
sV\u62a5
I243
sV\u8c26
I2329
sV\u5cb1
I4839
sV\u8bbf
I1641
sV\u683e
I5741
sV\u9540
I4597
sV\u71c3
I1410
sV\u65cb
I1306
sV\u5a4a
I3279
sV\u874c
I3740
sV\u63cf
I1445
sV\u8d50
I2671
sV\u4e52
I4020
sV\u9edd
I3116
sV\u5bdf
I1150
sV\u82e5
I580
sV\u906e
I1554
sV\u60f9
I1971
sV\u827a
I355
sV\u4f7c
I4402
sV\u887e
I5170
sV\u5401
I2068
sV\u7682
I2583
sV\u830f
I5742
sV\u8913
I4598
sV\u5496
I2478
sV\u589e
I1427
sV\u6123
I2387
sV\u77ac
I1985
sV\u7bb4
I5743
sV\u8e3d
I5171
sV\u7441
I5744
sV\u80ce
I2088
sV\u8f67
I4127
sV\u97ec
I4128
sV\u736f
I5172
sV\u9185
I5745
sV\u8f91
I774
sV\u6e10
I582
sV\u9716
I3071
sV\u5218
I816
sV\u892a
I2388
sV\u732e
I1578
sV\u6b3e
I1526
sV\u9640
I2456
sV\u8e50
I5746
sV\u8854
I2423
sV\u54d7
I1492
sV\u5edb
I4403
sV\u6064
I3808
sV\u8be9
I4599
sV\u7ff1
I3809
sV\u8776
I119
sV\u817a
I5173
sV\u5b09
I2867
sV\u4f11
I1328
sV\u9c9c
I997
sV\u5b9e
I162
sV\u80a4
I1632
sV\u6c27
I3810
sV\u4fa6
I3004
sV\u952d
I3648
sV\u9f31
I5747
sV\u78b4
I4251
sV\u8339
I4600
sV\u4e3b
I143
sV\u6cbc
I3588
sV\u7741
I1411
sV\u7145
I5174
sV\u7b49
I182
sV\u65e2
I847
sV\u766b
I3005
sV\u706f
I702
sV\u53ee
I1910
sV\u5df2
I124
sV\u7b08
I4840
sV\u9616
I3811
sV\u901a
I331
sV\u6aa9
I4252
sV\u97ab
I4841
sV\u54ad
I5175
sV\u6636
I3913
sV\u6a3e
I4842
sV\u6bd3
I4253
sV\u9cdd
I3237
sV\u7d5c
I5748
sV\u6760
I2319
sV\u80e5
I3182
sV\u556c
I4129
sV\u5f70
I3534
sV\u5974
I1696
sV\u6cfd
I1652
sV\u5601
I4843
sV\u810f
I1384
sV\u4e11
I1333
sV\u6323
I1385
sV\u4ea6
I1046
sV\u8ba8
I1093
sV\u75ac
I4844
sV\u9e31
I5176
sV\u8239
I437
sV\u63b8
I4404
sV\u51c4
I1546
sV\u82ce
I4405
sV\u4fd0
I3148
sV\u6855
I4130
sV\u9557
I4406
sV\u76d6
I757
sV\u7ade
I2228
sV\u8363
I1457
sV\u8d67
I5749
sV\u6ee6
I4845
sV\u776b
I3038
sV\u6577
I2541
sV\u9981
I4131
sV\u9f85
I5177
sV\u5287
I5178
sV\u4e8f
I2027
sV\u6614
I2144
sV\u5c18
I1290
sV\u951e
I5750
sV\u4e24
I101
sV\u65a9
I2479
sV\u94b3
I3589
sV\u653e
I178
sV\u9e44
I4021
sV\u5146
I2606
sV\u68cb
I3149
sV\u574a
I1838
sV\u8654
I3480
sV\u6860
I3481
sV\u8fe5
I5751
sV\u85e9
I3812
sV\u6df9
I2120
sV\u63fd
I2921
sV\u857e
I3590
sV\u5509
I1755
sV\u8e0f
I1357
sV\u6d8e
I3330
sV\u6392
I740
sV\u7a17
I4254
sV\u5996
I2439
sV\u701b
I4255
sV\u761f
I3208
sV\u7aac
I5752
sV\u9131
I5753
sV\u76b4
I5754
sV\u8d39
I1047
sV\u6cb8
I2517
sV\u62bc
I2389
sV\u7941
I4132
sV\u7f45
I5755
sV\u54c8
I1006
sV\u6151
I4846
sV\u905b
I4601
sV\u965f
I5179
sV\u75de
I3914
sV\u4f65
I3209
sV\u61e6
I3591
sV\u786b
I4256
sV\u5dee
I924
sV\u53f2
I576
sV\u607b
I4602
sV\u4ffa
I1579
sV\u9881
I3649
sV\u7f04
I4407
sV\u9489
I1583
sV\u4f8f
I3915
sV\u8695
I2892
sV\u6714
I4133
sV\u6ea5
I3183
sV\u4f24
I468
sV\u64a9
I2528
sV\u8bb7
I3482
sV\u81bb
I4134
sV\u6e3a
I2371
sV\u8150
I1598
sV\u51db
I3650
sV\u57df
I2840
sV\u6960
I5180
sV\u7aed
I1972
sV\u5b6c
I4408
sV\u5170
I936
sV\u62fd
I2868
sV\u5e05
I2518
sV\u5409
I1323
sV\u8513
I2764
sV\u6292
I3072
sV\u5e9a
I2277
sV\u771f
I183
sV\u592b
I233
sV\u5f2f
I989
sV\u5533
I4603
sV\u9635
I730
sV\u6db8
I4135
sV\u63bc
I4604
sV\u9ac2
I5756
sV\u5fc4
I5181
sV\u82d2
I5757
sV\u6655
I1746
sV\u5c59
I4605
sV\u7eda
I3535
sV\u8d63
I4606
sV\u8367
I3813
sV\u60e6
I3916
sV\u677f
I567
sV\u7a00
I1446
sV\u6210
I106
sV\u6414
I2751
sV\u5e18
I2248
sV\u501c
I4607
sV\u971e
I2519
sV\u6ba1
I2217
sV\u7f2e
I4847
sV\u96b3
I5758
sV\u55b5
I5182
sV\u84bf
I3483
sV\u7ec3
I1481
sV\u5942
I4608
sV\u9648
I611
sV\u554a
I472
sV\u884c
I167
sV\u4f4e
I647
sV\u54df
I2093
sV\u8be1
I2959
sV\u4ee3
I216
sV\u6c64
I1439
sV\u6668
I945
sV\u586c
I5183
sV\u5709
I4848
sV\u8c0f
I3651
sV\u6f8e
I3536
sV\u6e23
I2752
sV\u6027
I392
sV\u86a8
I5759
sV\u9535
I3006
sV\u60bc
I3039
sV\u8fce
I793
sV\u6555
I3380
sV\u5fee
I5760
sV\u9a81
I3917
sV\u5187
I4257
sV\u7708
I5184
sV\u888d
I2179
sV\u8291
I5761
sV\u5f18
I3918
sV\u709d
I5762
sV\u8822
I1986
sV\u6ca5
I2734
sV\u52b1
I3073
sV\u663e
I706
sV\u6bcb
I3238
sV\u544a
I418
sV\u4e4e
I260
sV\u8350
I2979
sV\u67d3
I1603
sV\u53db
I1873
sV\u90dd
I4258
sV\u715c
I4136
sV\u55df
I3331
sV\u86e9
I4609
sV\u6768
I823
sV\u72f1
I1556
sV\u5370
I431
sV\u8c7a
I3332
sV\u867e
I2672
sV\u5a01
I1056
sV\u5609
I2607
sV\u8713
I2869
sV\u6092
I4409
sV\u731b
I814
sV\u5c9a
I4410
sV\u751f
I50
sV\u6127
I2040
sV\u73b0
I115
sV\u5733
I5763
sV\u8e39
I3333
sV\u803d
I2980
sV\u6251
I937
sV\u7ad6
I1812
sV\u62e6
I2107
sV\u95f4
I188
sV\u6977
I3919
sV\u8ff8
I2584
sV\u637b
I4137
sV\u81fc
I4849
sV\u5883
I1134
sV\u9189
I1081
sV\u8f8d
I3920
sV\u6e0c
I5764
sV\u6410
I2673
sV\u911e
I5765
sV\u6da1
I3381
sV\u61a9
I4138
sV\u9cab
I4610
sV\u5fad
I5766
sV\u6b3a
I1904
sV\u5546
I897
sV\u534a
I275
sV\u52df
I3117
sV\u6c60
I2180
sV\u8be5
I309
sV\u6068
I839
sV\u996e
I1612
sV\u75f1
I4611
sV\u8d76
I720
sV\u817e
I1116
sV\u9607
I5767
sV\u7586
I3074
sV\u8c0b
I1469
sV\u4f0d
I1196
sV\u9898
I531
sV\u741b
I5185
sV\u5b9a
I211
sV\u969c
I2654
sV\u6627
I2339
sV\u7eac
I3921
sV\u9531
I5768
sV\u93ca
I4612
sV\u6f4d
I4411
sV\u89ce
I5769
sV\u6551
I947
sV\u87d2
I4412
sV\u6355
I1557
sV\u9e57
I4850
sV\u575d
I4022
sV\u8863
I400
sV\u65e6
I1697
sV\u63ea
I2480
sV\u59ee
I4613
sV\u94f0
I3922
sV\u88f8
I2013
sV\u627f
I1191
sV\u9c81
I514
sV\u5983
I2692
sV\u9a85
I4614
sV\u571c
I4259
sV\u901e
I3150
sV\u6ca1
I54
sV\u8e22
I1571
sV\u8426
I3537
sV\u822a
I2707
sV\u5ead
I1200
sV\u54b1
I645
sV\u79c3
I2145
sV\u9b44
I2340
sV\u5446
I1043
sV\u6dcb
I1725
sV\u524a
I1952
sV\u6bcf
I382
sV\u8354
I4023
sV\u5fd7
I537
sV\u98d9
I2278
sV\u53df
I4413
sV\u8ae5
I5186
sV\u6b64
I186
sV\u6168
I1781
sV\u7eed
I864
sV\u5f6c
I3814
sV\u986e
I4851
sV\u5570
I3334
sV\u9672
I5770
sV\u5374
I108
sV\u68f9
I5771
sV\u5c01
I894
sV\u7e82
I3431
sV\u5a05
I5187
sV\u9707
I1561
sV\u728a
I3815
sV\u4e0d
I7
sV\u8113
I3923
sV\u7f17
I5772
sV\u5c96
I4024
sV\u751b
I5773
sV\u5a9a
I2249
sV\u4ea2
I2841
sV\u8ba4
I457
sV\u81a8
I3280
sV\u9e2d
I1851
sV\u8839
I5774
sV\u7c41
I3281
sV\u5bc4
I1538
sV\u6e4d
I4025
sV\u88ce
I5188
sV\u7cd6
I1440
sV\u6ee2
I1337
sV\u64e6
I1216
sV\u58ee
I1151
sV\u95f0
I2765
sV\u7173
I4260
sV\u9985
I3484
sV\u4e8b
I76
sV\u6014
I2457
sV\u5a18
I398
sV\u541c
I5189
sV\u6fa1
I2842
sV\u8d22
I1250
sV\u63a9
I1429
sV\u7532
I1262
sV\u51b5
I843
sV\u6f36
I3924
sV\u80bf
I2069
sV\u6ecb
I1458
sV\u8c4c
I3652
sV\u8650
I2585
sV\u62d3
I2693
sV\u8054
I710
sV\u56db
I146
sV\u745c
I3816
sV\u89e5
I4261
sV\u83e9
I2843
sV\u9572
I5190
sV\u8f76
I4414
sV\u5f01
I4615
sV\u718a
I1874
sV\u9a98
I5191
sV\u949c
I4852
sV\u88a4
I4853
sV\u6427
I4026
sV\u82a8
I5192
sV\u853d
I2960
sV\u64bc
I4139
sV\u91ca
I1322
sV\u6d4d
I5775
sV\u8bce
I5193
sV\u6751
I465
sV\u6155
I2320
sV\u5b59
I850
sV\u965b
I5776
sV\u73de
I5194
sV\u5bee
I4854
sV\u4ff6
I5777
sV\u84fc
I5778
sV\u607f
I4140
sV\u7f00
I2791
sV\u5b83
I149
sV\u9885
I2081
sV\u5587
I1875
sV\u4f8b
I840
sV\u6d0c
I4262
sV\u4f20
I282
sV\u8c22
I975
sV\u5cad
I3151
sV\u7432
I5779
sV\u623e
I3817
sV\u5c42
I928
sV\u75c7
I2674
sV\u8d4c
I2250
sV\u8154
I1521
sV\u94dd
I4263
sV\u755c
I1613
sV\u9a6e
I2372
sV\u5174
I469
sV\u8e76
I4141
sV\u827e
I3382
sV\u5e01
I2406
sV\u9b03
I3239
sV\u7686
I1329
sV\u708a
I2961
sV\u6492
I1452
sV\u5e96
I4415
sV\u529e
I471
sV\u6b23
I1584
sV\u83a8
I5780
sV\u592f
I5781
sV\u9631
I3538
sV\u77b0
I3653
sV\u9035
I4616
sV\u843d
I319
sV\u65bc
I3118
sV\u7e41
I1599
sV\u7845
I5782
sV\u96c6
I393
sV\u53c8
I60
sV\u90ca
I2330
sV\u6055
I2390
sV\u975b
I4617
sV\u72de
I2792
sV\u4e61
I504
sV\u6ce2
I1371
sV\u66e6
I4618
sV\u796f
I3432
sV\u54f2
I1791
sV\u6d77
I292
sV\u4ef6
I500
sV\u8bf8
I1217
s(lp2
V\uff0c
aV\u7684
aV\u3002
aV\u4e00
aV\u4e86
aV\u6211
aV\u662f
aV\u4e0d
aV\u5728
aV\u4eba
aV\u6709
aV\u8bf4
aV\u4ed6
aV\u8fd9
aV\u6765
aV\u4f60
aV\u7740
aV\u4e0a
aV\u5b50
aV\u5927
aV\u5c31
aV\u4e2a
aV\u4e5f
aV\u90a3
aV\u91cc
aV\u4eec
aV\u5230
aV\u5730
aV\u53bb
aV\u4e4b
aV\u4e3a
aV\u65f6
aV\u51fa
aV\u5f97
aV\u8981
aV\u770b
aV\u4e2d
aV\u4e0b
aV\u4e48
aV\u4ee5
aV\u8fc7
aV\u8fd8
aV\u548c
aV\u5bb6
aV\u5e74
aV\u5934
aV\u7136
aV\u5c0f
aV\u6708
aV\u800c
aV\u751f
aV\u540e
aV\u8d77
aV\u81ea
aV\u6ca1
aV\u4e8e
aV\u597d
aV\u6587
aV\u9053
aV\u5341
aV\u53c8
aV\u90fd
aV\u4f46
aV\u53ef
aV\u5979
aV\u4f1a
aV\u5929
aV\u4e8c
aV\u53ea
aV\u6837
aV\u6240
aV\u60f3
aV\u8001
aV\u56fd
aV\u513f
aV\u5fc3
aV\u4e8b
aV\u4f5c
aV\u65e5
aV\u591a
aV\u5b66
aV\u5bf9
aV\u89c1
aV\u4e09
aV\u53d1
aV\u5982
aV\u628a
aV\u65e0
aV\u80fd
aV\u624b
aV\u7528
aV\u7237
aV\u5f00
aV\u957f
aV\u58f0
aV\u524d
aV\u5e84
aV\u77e5
aV\u4e9b
aV\u9762
aV\u4ece
aV\u4e24
aV\u8005
aV\u4ec0
aV\u773c
aV\u95e8
aV\u6210
aV\u56de
aV\u5374
aV\u672c
aV\u9ad8
aV\u4fbf
aV\u8eab
aV\u8bdd
aV\u4eb2
aV\u73b0
aV\u5f53
aV\u8d70
aV\u7ecf
aV\u8776
aV\u4e66
aV\u52a8
aV\u51e0
aV\u6c14
aV\u5df2
aV\u7ed9
aV\u767d
aV\u6c34
aV\u897f
aV\u4e5d
aV\u5973
aV\u8fb9
aV\u660e
aV\u610f
aV\u6253
aV\u5df1
aV\u6e05
aV\u88ab
aV\u4e94
aV\u5f88
aV\u5976
aV\u56e0
aV\u60c5
aV\u4e3b
aV\u7b2c
aV\u53e3
aV\u56db
aV\u540c
aV\u5148
aV\u5b83
aV\u6b63
aV\u79cd
aV\u70b9
aV\u8fdb
aV\u5176
aV\u542c
aV\u5c06
aV\u7236
aV\u725b
aV\u5403
aV\u592a
aV\u5149
aV\u5b9e
aV\u8ba9
aV\u50cf
aV\u53eb
aV\u6b7b
aV\u884c
aV\u8138
aV\u547d
aV\u5916
aV\u65b9
aV\u4e0e
aV\u7b11
aV\u82b1
aV\u505a
aV\u7231
aV\u540d
aV\u653e
aV\u8272
aV\u5206
aV\u95ee
aV\u7b49
aV\u771f
aV\u6700
aV\u6c11
aV\u6b64
aV\u5e76
aV\u95f4
aV\u522b
aV\u65b0
aV\u600e
aV\u611f
aV\u8bb0
aV\u624d
aV\u4f7f
aV\u4e1c
aV\u89c9
aV\u518d
aV\u7ea2
aV\u5012
aV\u623f
aV\u516b
aV\u8bb8
aV\u5b57
aV\u4f4f
aV\u6761
aV\u5e38
aV\u529b
aV\u76f8
aV\u6cd5
aV\u5b9a
aV\u8bba
aV\u5199
aV\u8def
aV\u516c
aV\u4ee3
aV\u5f80
aV\u8868
aV\u6307
aV\u5468
aV\u9ed1
aV\u6d41
aV\u5168
aV\u72d7
aV\u5411
aV\u9a6c
aV\u9ec4
aV\u5e72
aV\u8a00
aV\u4f53
aV\u5373
aV\u4e03
aV\u592b
aV\u6216
aV\u5317
aV\u67f3
aV\u6d3b
aV\u8fde
aV\u98ce
aV\u6559
aV\u8f66
aV\u9769
aV\u62a5
aV\u4e16
aV\u5f20
aV\u4eac
aV\u8bed
aV\u4f3c
aV\u5173
aV\u5462
aV\u5019
aV\u516d
aV\u5427
aV\u91d1
aV\u7269
aV\u96be
aV\u601d
aV\u81f3
aV\u7f8e
aV\u4e4e
aV\u5c11
aV\u76f4
aV\u5904
aV\u539f
aV\u603b
aV\u66fe
aV\u4e49
aV\u4eca
aV\u6b21
aV\u5e73
aV\u7406
aV\u6ee1
aV\u679c
aV\u4fe1
aV\u534a
aV\u8c01
aV\u795e
aV\u793e
aV\u975e
aV\u91cd
aV\u5c71
aV\u4f20
aV\u732a
aV\u7ae0
aV\u6bcd
aV\u9152
aV\u4f55
aV\u4e14
aV\u6cb3
aV\u706b
aV\u5750
aV\u6d77
aV\u67aa
aV\u66f4
aV\u738b
aV\u5634
aV\u5e08
aV\u5458
aV\u6bd4
aV\u53d8
aV\u8fdc
aV\u53cd
aV\u58eb
aV\u520a
aV\u7acb
aV\u89e3
aV\u57ce
aV\u6015
aV\u8be5
aV\u7a7a
aV\u671b
aV\u5417
aV\u76ee
aV\u4e91
aV\u7adf
aV\u811a
aV\u571f
aV\u7247
aV\u843d
aV\u672a
aV\u867d
aV\u9752
aV\u90e8
aV\u53e4
aV\u5e94
aV\u4ea7
aV\u53d7
aV\u5feb
aV\u671f
aV\u6811
aV\u901a
aV\u7531
aV\u7fe0
aV\u65e9
aV\u7ad9
aV\u5e26
aV\u5408
aV\u573a
aV\u5b89
aV\u591c
aV\u6218
aV\u9662
aV\u767e
aV\u5b69
aV\u7bc7
aV\u76ae
aV\u5165
aV\u52a0
aV\u54cd
aV\u961f
aV\u6b4c
aV\u822c
aV\u5316
aV\u94b1
aV\u827a
aV\u8f7b
aV\u8840
aV\u754c
aV\u5b8c
aV\u5fc5
aV\u6545
aV\u6728
aV\u63a5
aV\u82e6
aV\u62c9
aV\u9a74
aV\u6c49
aV\u7ed3
aV\u963f
aV\u63d0
aV\u7f62
aV\u8349
aV\u5510
aV\u8dd1
aV\u97f3
aV\u5de5
aV\u4efb
aV\u84dd
aV\u70ed
aV\u8fd1
aV\u8bd1
aV\u6bcf
aV\u6df1
aV\u94c1
aV\u5473
aV\u6bdb
aV\u519b
aV\u8f6c
aV\u98de
aV\u5219
aV\u4f4d
aV\u6027
aV\u96c6
aV\u51b7
aV\u9f99
aV\u559d
aV\u8ddf
aV\u5a18
aV\u79bb
aV\u8863
aV\u4ee4
aV\u9001
aV\u7834
aV\u66f2
aV\u521d
aV\u7ec8
aV\u673a
aV\u7535
aV\u6b22
aV\u4f59
aV\u5207
aV\u53cc
aV\u77f3
aV\u5e95
aV\u753b
aV\u6839
aV\u5b98
aV\u544a
aV\u5357
aV\u7f16
aV\u6536
aV\u5931
aV\u53e5
aV\u559c
aV\u775b
aV\u7b97
aV\u7537
aV\u5f71
aV\u5df4
aV\u6b65
aV\u5370
aV\u6740
aV\u523b
aV\u8bfb
aV\u62ff
aV\u79f0
aV\u8239
aV\u70df
aV\u5bb9
aV\u5377
aV\u5355
aV\u9633
aV\u996d
aV\u7f57
aV\u7761
aV\u670d
aV\u5440
aV\u4eae
aV\u5c4b
aV\u5b9b
aV\u8bb2
aV\u654f
aV\u7cb1
aV\u7c7b
aV\u7d27
aV\u7239
aV\u8ba4
aV\u80e1
aV\u9999
aV\u9759
aV\u5987
aV\u7559
aV\u653f
aV\u53bf
aV\u6751
aV\u54ed
aV\u5b5f
aV\u4f24
aV\u5174
aV\u7ba1
aV\u529e
aV\u554a
aV\u5185
aV\u5f62
aV\u7a7f
aV\u5404
aV\u65e7
aV\u4e50
aV\u4e07
aV\u8bc6
aV\u82f1
aV\u5c3d
aV\u9b3c
aV\u6d2a
aV\u4f17
aV\u6c89
aV\u4f5b
aV\u7167
aV\u7ea7
aV\u5229
aV\u6742
aV\u627e
aV\u54ea
aV\u6625
aV\u53ca
aV\u4e71
aV\u6781
aV\u8bf7
aV\u95f9
aV\u4ef6
aV\u5566
aV\u7ffb
aV\u5e02
aV\u4e61
aV\u968f
aV\u5fb7
aV\u6162
aV\u590d
aV\u7279
aV\u652f
aV\u7fa4
aV\u4e70
aV\u75db
aV\u9c81
aV\u9886
aV\u5175
aV\u80cc
aV\u4e45
aV\u6c5f
aV\u5e03
aV\u9a82
aV\u54e5
aV\u6570
aV\u9636
aV\u515a
aV\u6563
aV\u8089
aV\u5305
aV\u8c61
aV\u6389
aV\u9898
aV\u8df3
aV\u7ea6
aV\u5143
aV\u6539
aV\u5899
aV\u5fd7
aV\u5343
aV\u8c08
aV\u817f
aV\u5f85
aV\u54c1
aV\u53f8
aV\u6797
aV\u8bc4
aV\u60ca
aV\u96ea
aV\u7cbe
aV\u8bd7
aV\u5757
aV\u53f7
aV\u6562
aV\u7eb8
aV\u53cb
aV\u666f
aV\u665a
aV\u8033
aV\u7956
aV\u51b3
aV\u613f
aV\u7ec6
aV\u4ea4
aV\u8fc5
aV\u5ea6
aV\u5a46
aV\u5ff5
aV\u677f
aV\u4eff
aV\u8fd0
aV\u6697
aV\u59d0
aV\u8857
aV\u9020
aV\u6ce8
aV\u91ce
aV\u53f2
aV\u6cea
aV\u5e7f
aV\u96e8
aV\u82e5
aV\u8c13
aV\u6e10
aV\u558a
aV\u68a6
aV\u88c5
aV\u6821
aV\u6597
aV\u59cb
aV\u5f15
aV\u75c5
aV\u53d6
aV\u5171
aV\u4fdd
aV\u5f39
aV\u8457
aV\u5ba2
aV\u606f
aV\u8db3
aV\u672f
aV\u5fd9
aV\u505c
aV\u602a
aV\u6c42
aV\u6d0b
aV\u65ad
aV\u8bcd
aV\u5e1d
aV\u8d8a
aV\u5947
aV\u89d2
aV\u9648
aV\u7cfb
aV\u5bc6
aV\u6076
aV\u53f6
aV\u636e
aV\u8d75
aV\u4e1d
aV\u5200
aV\u5bfc
aV\u5802
aV\u5e0c
aV\u79cb
aV\u521b
aV\u56f4
aV\u6447
aV\u6d88
aV\u5fae
aV\u5fd8
aV\u5f3a
aV\u5e97
aV\u51b2
aV\u547c
aV\u53f0
aV\u7a76
aV\u5386
aV\u4e89
aV\u534e
aV\u9ebb
aV\u6cbb
aV\u83ab
aV\u5e9c
aV\u56e2
aV\u4e3e
aV\u54b1
aV\u5236
aV\u4f4e
aV\u62b1
aV\u7b14
aV\u6e38
aV\u8282
aV\u7eff
aV\u6599
aV\u6cb9
aV\u574f
aV\u5531
aV\u5c81
aV\u91cf
aV\u4e13
aV\u836f
aV\u70e7
aV\u89c2
aV\u56fe
aV\u7248
aV\u5bb3
aV\u526f
aV\u6d3e
aV\u987b
aV\u9519
aV\u6f14
aV\u786e
aV\u9996
aV\u65af
aV\u7b54
aV\u5b54
aV\u72ec
aV\u8ba1
aV\u80a1
aV\u949f
aV\u95ea
aV\u98df
aV\u53c2
aV\u517b
aV\u7259
aV\u5de6
aV\u591f
aV\u620f
aV\u521a
aV\u6301
aV\u5047
aV\u798f
aV\u6bb5
aV\u51c6
aV\u5bfb
aV\u6025
aV\u7ebf
aV\u8111
aV\u6574
aV\u5f1f
aV\u5b9d
aV\u5c14
aV\u706f
aV\u7075
aV\u8170
aV\u6302
aV\u663e
aV\u51fb
aV\u9f3b
aV\u95f2
aV\u8054
aV\u987a
aV\u7edd
aV\u590f
aV\u6279
aV\u5439
aV\u541b
aV\u5988
aV\u538b
aV\u6613
aV\u8d76
aV\u6cf0
aV\u671d
aV\u793c
aV\u5356
aV\u95fb
aV\u519c
aV\u5ffd
aV\u59d1
aV\u9876
aV\u9635
aV\u6c99
aV\u9000
aV\u8f7d
aV\u65c1
aV\u683c
aV\u63a8
aV\u9aa8
aV\u6000
aV\u89c6
aV\u6392
aV\u4f19
aV\u9760
aV\u5e78
aV\u7a97
aV\u5c40
aV\u809a
aV\u6309
aV\u6b62
aV\u6b66
aV\u6735
aV\u5348
aV\u523a
aV\u52a9
aV\u5e9e
aV\u670b
aV\u61c2
aV\u76d6
aV\u4ecd
aV\u697c
aV\u6c38
aV\u7aef
aV\u7eaa
aV\u5f04
aV\u77ed
aV\u8131
aV\u9e21
aV\u5b58
aV\u54ac
aV\u504f
aV\u7d22
aV\u751a
aV\u7a81
aV\u5cb3
aV\u8f91
aV\u9664
aV\u82cf
aV\u684c
aV\u62bd
aV\u4f9d
aV\u6a21
aV\u8bae
aV\u9ed8
aV\u5e8a
aV\u5708
aV\u533b
aV\u5018
aV\u5ba3
aV\u56ed
aV\u73a9
aV\u9f13
aV\u8c03
aV\u8d44
aV\u8fce
aV\u53e6
aV\u4f38
aV\u661f
aV\u52bf
aV\u8fbe
aV\u529f
aV\u978b
aV\u5c16
aV\u52a1
aV\u674e
aV\u5c45
aV\u514d
aV\u9047
aV\u7c73
aV\u6050
aV\u72b6
aV\u5efa
aV\u7591
aV\u604b
aV\u5ba4
aV\u731b
aV\u677e
aV\u5218
aV\u888b
aV\u4e92
aV\u70c8
aV\u58a8
aV\u5f0f
aV\u7070
aV\u6768
aV\u9192
aV\u9634
aV\u6982
aV\u719f
aV\u8bc9
aV\u5f02
aV\u674f
aV\u514b
aV\u5e2e
aV\u9c7c
aV\u6478
aV\u6258
aV\u60b2
aV\u638c
aV\u793a
aV\u6068
aV\u4f8b
aV\u7565
aV\u786c
aV\u51b5
aV\u66f0
aV\u4e1a
aV\u8f83
aV\u65e2
aV\u5c1a
aV\u672b
aV\u5b59
aV\u5907
aV\u6eda
aV\u51c9
aV\u70c2
aV\u4e25
aV\u54e9
aV\u6e29
aV\u6fc0
aV\u62ac
aV\u6362
aV\u9986
aV\u72c2
aV\u7f6a
aV\u7eed
aV\u9f50
aV\u9732
aV\u5144
aV\u51b0
aV\u5438
aV\u53f3
aV\u8116
aV\u51e4
aV\u656c
aV\u6446
aV\u81f4
aV\u6c0f
aV\u8bc1
aV\u59bb
aV\u6293
aV\u8d35
aV\u6881
aV\u65cf
aV\u72fc
aV\u9aa1
aV\u80af
aV\u6297
aV\u5b8b
aV\u5706
aV\u4e34
aV\u5426
aV\u66f9
aV\u6ce5
aV\u59d3
aV\u5c01
aV\u62cd
aV\u6c57
aV\u5546
aV\u6001
aV\u62db
aV\u9003
aV\u7b80
aV\u900f
aV\u695a
aV\u80b2
aV\u826f
aV\u722c
aV\u83dc
aV\u7687
aV\u4fc4
aV\u8ffd
aV\u6750
aV\u987e
aV\u7389
aV\u6012
aV\u4f2f
aV\u821e
aV\u6743
aV\u4e3d
aV\u865a
aV\u8ff7
aV\u85cf
aV\u5dde
aV\u653b
aV\u5dee
aV\u5360
aV\u59d4
aV\u788e
aV\u5c42
aV\u6388
aV\u575a
aV\u5fc6
aV\u77a7
aV\u5584
aV\u5a5a
aV\u6d17
aV\u5170
aV\u6251
aV\u6295
aV\u624e
aV\u5c04
aV\u552f
aV\u904d
aV\u58c1
aV\u67b6
aV\u6668
aV\u8c46
aV\u6551
aV\u5954
aV\u5b81
aV\u7f3a
aV\u804c
aV\u6beb
aV\u96c4
aV\u8003
aV\u6c6a
aV\u80f8
aV\u864e
aV\u6de1
aV\u60dc
aV\u820d
aV\u5fcd
aV\u5c41
aV\u8336
aV\u80dc
aV\u62e5
aV\u5217
aV\u8bd5
aV\u7ef4
aV\u7530
aV\u53d4
aV\u5267
aV\u7c97
aV\u5bcc
aV\u501f
aV\u8c22
aV\u7cca
aV\u51e1
aV\u6234
aV\u5c6f
aV\u8499
aV\u7897
aV\u78b0
aV\u76d8
aV\u6f2b
aV\u67d0
aV\u70e6
aV\u7275
aV\u57fa
aV\u5f2f
aV\u6f6e
aV\u75af
aV\u6bd5
aV\u67e5
aV\u60a8
aV\u5c3e
aV\u8d25
aV\u9c9c
aV\u72b9
aV\u6d6a
aV\u7ef3
aV\u706d
aV\u9884
aV\u6b32
aV\u9690
aV\u5177
aV\u54c8
aV\u52b3
aV\u6865
aV\u5806
aV\u9b42
aV\u5e2d
aV\u626c
aV\u8eba
aV\u539a
aV\u6b8b
aV\u62d6
aV\u9a91
aV\u9057
aV\u5c38
aV\u62a4
aV\u6325
aV\u76db
aV\u767b
aV\u724c
aV\u62c5
aV\u5939
aV\u9009
aV\u5c55
aV\u53f9
aV\u5668
aV\u8bbe
aV\u5f69
aV\u8f6e
aV\u4fee
aV\u7a0b
aV\u8584
aV\u62b5
aV\u7814
aV\u914d
aV\u6848
aV\u4ef7
aV\u7edf
aV\u5446
aV\u9897
aV\u679d
aV\u4ea6
aV\u8d39
aV\u5385
aV\u676f
aV\u955c
aV\u79d1
aV\u88e4
aV\u536b
aV\u82d7
aV\u4ea1
aV\u5a01
aV\u5c5e
aV\u8ff9
aV\u8bef
aV\u7701
aV\u52c7
aV\u5e3d
aV\u8e44
aV\u4ef0
aV\u5077
aV\u8b66
aV\u67d4
aV\u79d8
aV\u5999
aV\u5f52
aV\u6df7
aV\u5145
aV\u9700
aV\u7981
aV\u8d28
aV\u7626
aV\u94f6
aV\u7a3f
aV\u6237
aV\u4e60
aV\u9189
aV\u7c89
aV\u5ea7
aV\u6a2a
aV\u6324
aV\u4efd
aV\u6084
aV\u987f
aV\u660f
aV\u7709
aV\u707f
aV\u7af9
aV\u8ba8
aV\u7f13
aV\u503c
aV\u7eb7
aV\u73af
aV\u5ac2
aV\u7a9d
aV\u6d1e
aV\u5434
aV\u65d7
aV\u54c0
aV\u9645
aV\u4f0f
aV\u5957
aV\u4e4c
aV\u5b5d
aV\u6298
aV\u5bd2
aV\u649e
aV\u5410
aV\u73e0
aV\u533a
aV\u989c
aV\u817e
aV\u6643
aV\u545c
aV\u6d82
aV\u5de8
aV\u86cb
aV\u654c
aV\u6296
aV\u98d8
aV\u4ec5
aV\u6572
aV\u9e1f
aV\u585e
aV\u5382
aV\u9875
aV\u7ec4
aV\u9e23
aV\u5178
aV\u5883
aV\u6e9c
aV\u5bc2
aV\u4ec7
aV\u94bb
aV\u5201
aV\u6807
aV\u8f6f
aV\u73ed
aV\u8d23
aV\u8d64
aV\u5339
aV\u6e90
aV\u5347
aV\u63a2
aV\u6124
aV\u5bdf
aV\u58ee
aV\u575f
aV\u8da3
aV\u66b4
aV\u81ed
aV\u6bd2
aV\u8feb
aV\u80a9
aV\u5723
aV\u4e1b
aV\u6108
aV\u6cbf
aV\u6ed1
aV\u7ecd
aV\u5f92
aV\u8d24
aV\u5507
aV\u732b
aV\u4ecb
aV\u5b88
aV\u5413
aV\u9505
aV\u9002
aV\u6469
aV\u6d6e
aV\u5f55
aV\u5915
aV\u6377
aV\u8f9e
aV\u4f26
aV\u8865
aV\u94dc
aV\u56fa
aV\u4e9a
aV\u62dc
aV\u4f0a
aV\u818a
aV\u74f6
aV\u7f18
aV\u63d2
aV\u627f
aV\u95ed
aV\u5c24
aV\u7c4d
aV\u5b64
aV\u4f0d
aV\u6e21
aV\u9644
aV\u666e
aV\u5ead
aV\u8d34
aV\u51c0
aV\u6267
aV\u6254
aV\u70ae
aV\u5893
aV\u5b97
aV\u60ef
aV\u5cb8
aV\u8d85
aV\u6ce1
aV\u6c7d
aV\u9694
aV\u51ac
aV\u7ec7
aV\u64e6
aV\u8bf8
aV\u8d1f
aV\u659c
aV\u8d4f
aV\u8361
aV\u7720
aV\u68f5
aV\u80c6
aV\u820c
aV\u532a
aV\u67dc
aV\u5f31
aV\u82cd
aV\u79ef
aV\u906d
aV\u7d2f
aV\u962e
aV\u60e8
aV\u7a77
aV\u72af
aV\u5c1d
aV\u7f1d
aV\u594b
aV\u8c37
aV\u641c
aV\u59b9
aV\u4fa7
aV\u5eb7
aV\u8352
aV\u5367
aV\u57cb
aV\u8ff0
aV\u4f9b
aV\u8d22
aV\u836b
aV\u9887
aV\u4fd7
aV\u9614
aV\u907f
aV\u65a4
aV\u9a8c
aV\u5192
aV\u6e7f
aV\u6e56
aV\u6696
aV\u7532
aV\u4e43
aV\u64cd
aV\u866b
aV\u675f
aV\u62f3
aV\u4f1f
aV\u5076
aV\u601c
aV\u7eaf
aV\u7f6e
aV\u94fa
aV\u9669
aV\u7f8a
aV\u5e9f
aV\u6770
aV\u5bbd
aV\u7ae5
aV\u948a
aV\u68cd
aV\u6f02
aV\u70b8
aV\u80a5
aV\u89c8
aV\u8f9b
aV\u5782
aV\u6628
aV\u4e59
aV\u5c18
aV\u7126
aV\u8dcc
aV\u5de7
aV\u8fa9
aV\u6b6a
aV\u7ee7
aV\u6311
aV\u68fa
aV\u5f8b
aV\u5212
aV\u8bda
aV\u54d1
aV\u66ff
aV\u95f7
aV\u79c0
aV\u65cb
aV\u5c0a
aV\u538c
aV\u7403
aV\u78e8
aV\u804a
aV\u80d6
aV\u5e7d
aV\u667a
aV\u91c7
aV\u901f
aV\u6bc1
aV\u51f0
aV\u6d8c
aV\u5224
aV\u90ce
aV\u91ca
aV\u5409
aV\u9f7f
aV\u5306
aV\u5b63
aV\u543e
aV\u4f11
aV\u7686
aV\u6ef4
aV\u68c9
aV\u5f03
aV\u4e11
aV\u642c
aV\u6eaa
aV\u5e8f
aV\u6ee2
aV\u9010
aV\u8d27
aV\u6d53
aV\u561b
aV\u6276
aV\u97ad
aV\u5f81
aV\u62d4
aV\u751c
aV\u964d
aV\u5f90
aV\u526a
aV\u997c
aV\u54fc
aV\u8d5e
aV\u5e7b
aV\u966a
aV\u4e27
aV\u7eea
aV\u8e0f
aV\u5c3c
aV\u8eb2
aV\u80f3
aV\u8425
aV\u6028
aV\u542b
aV\u8f86
aV\u8f7f
aV\u51f6
aV\u55b7
aV\u4e08
aV\u72d0
aV\u8896
aV\u6ce2
aV\u52b2
aV\u7ed5
aV\u5251
aV\u535a
aV\u62a2
aV\u9547
aV\u7f29
aV\u72e0
aV\u5e45
aV\u9650
aV\u96fe
aV\u4e95
aV\u810f
aV\u6323
aV\u86c7
aV\u6d45
aV\u74e6
aV\u67af
aV\u7ffc
aV\u805a
aV\u8303
aV\u8dea
aV\u9178
aV\u6247
aV\u4ec1
aV\u606d
aV\u4ed9
aV\u7334
aV\u7f20
aV\u62b9
aV\u5c3f
aV\u4e32
aV\u4f18
aV\u5269
aV\u6b27
aV\u7095
aV\u9ccc
aV\u5824
aV\u71c3
aV\u7741
aV\u7238
aV\u79c1
aV\u63e1
aV\u79fb
aV\u5b9c
aV\u9f9a
aV\u529d
aV\u68da
aV\u4eab
aV\u6cbe
aV\u9488
aV\u731c
aV\u5fe7
aV\u88c2
aV\u98a4
aV\u589e
aV\u5265
aV\u63a9
aV\u638f
aV\u62fe
aV\u633a
aV\u517d
aV\u5ac1
aV\u76c6
aV\u80f6
aV\u903c
aV\u52aa
aV\u6c64
aV\u7cd6
aV\u60a0
aV\u9014
aV\u503e
aV\u5949
aV\u63cf
aV\u7a00
aV\u8fdf
aV\u96c5
aV\u56f0
aV\u7d20
aV\u6d32
aV\u6492
aV\u722a
aV\u5589
aV\u96f7
aV\u626f
aV\u8363
aV\u6ecb
aV\u7d2b
aV\u5df7
aV\u94a2
aV\u77e3
aV\u626b
aV\u73bb
aV\u614c
aV\u56b7
aV\u4f2a
aV\u634f
aV\u8c0b
aV\u4ed8
aV\u9ea6
aV\u89c4
aV\u74dc
aV\u52c3
aV\u6682
aV\u5fe0
aV\u8bad
aV\u5598
aV\u7cae
aV\u6d4e
aV\u7ec3
aV\u997f
aV\u6167
aV\u65c5
aV\u4f34
aV\u7eb3
aV\u626d
aV\u76d1
aV\u5389
aV\u8f88
aV\u7bb1
aV\u54d7
aV\u55c5
aV\u5495
aV\u5237
aV\u5f7c
aV\u54bd
aV\u7a33
aV\u607c
aV\u73cd
aV\u65bd
aV\u79e6
aV\u5acc
aV\u52fe
aV\u4e30
aV\u8e72
aV\u543b
aV\u72f8
aV\u89e6
aV\u8bfa
aV\u60df
aV\u7968
aV\u556a
aV\u609f
aV\u62e8
aV\u7f69
aV\u9677
aV\u8427
aV\u4e22
aV\u8f89
aV\u8154
aV\u642d
aV\u5475
aV\u96f6
aV\u8212
aV\u6b3e
aV\u50bb
aV\u6094
aV\u4e58
aV\u6069
aV\u4e01
aV\u540a
aV\u9632
aV\u9f20
aV\u7206
aV\u6101
aV\u5c3a
aV\u5bc4
aV\u76ca
aV\u6495
aV\u6f06
aV\u6843
aV\u7272
aV\u75d5
aV\u5bde
aV\u51c4
aV\u53a8
aV\u81e3
aV\u4e73
aV\u6d59
aV\u541f
aV\u592e
aV\u8fab
aV\u906e
aV\u7816
aV\u72f1
aV\u6355
aV\u7f72
aV\u6dfb
aV\u83b7
aV\u9707
aV\u886b
aV\u6591
aV\u9646
aV\u51ed
aV\u63ed
aV\u67f4
aV\u5371
aV\u6170
aV\u5065
aV\u8e22
aV\u989d
aV\u7483
aV\u53ed
aV\u7f9e
aV\u8179
aV\u80a0
aV\u732e
aV\u4ffa
aV\u8f93
aV\u5ddd
aV\u6746
aV\u9489
aV\u6b23
aV\u6548
aV\u76d2
aV\u680f
aV\u8205
aV\u9a97
aV\u806a
aV\u8ddd
aV\u8000
aV\u543c
aV\u9600
aV\u795d
aV\u81c2
aV\u4ed7
aV\u8150
aV\u7e41
aV\u8180
aV\u8fa3
aV\u7c92
aV\u67d3
aV\u8010
aV\u6367
aV\u622a
aV\u6b20
aV\u51f3
aV\u5288
aV\u5582
aV\u8c8c
aV\u996e
aV\u755c
aV\u8c6b
aV\u8c23
aV\u878d
aV\u6d51
aV\u6ee9
aV\u6e7e
aV\u5c48
aV\u82a6
aV\u5435
aV\u62ab
aV\u8db4
aV\u70c1
aV\u7cdf
aV\u8c6a
aV\u8e29
aV\u62d0
aV\u6458
aV\u517c
aV\u80a4
aV\u83b1
aV\u8de8
aV\u5362
aV\u8fb1
aV\u5272
aV\u7434
aV\u7965
aV\u561f
aV\u8bbf
aV\u54a7
aV\u846c
aV\u6d25
aV\u6d01
aV\u5e99
aV\u9676
aV\u5211
aV\u61d2
aV\u9065
aV\u9971
aV\u6cfd
aV\u7801
aV\u5978
aV\u8dc3
aV\u6cab
aV\u7b3c
aV\u52d2
aV\u51dd
aV\u68c0
aV\u4eea
aV\u9a71
aV\u75bc
aV\u51a4
aV\u5395
aV\u8bbd
aV\u6361
aV\u85e4
aV\u6620
aV\u9b54
aV\u59ff
aV\u6089
aV\u6e34
aV\u5de1
aV\u664b
aV\u5d07
aV\u803b
aV\u60d1
aV\u5bbe
aV\u6885
aV\u5854
aV\u59c6
aV\u9042
aV\u5a03
aV\u67c4
aV\u7eb9
aV\u7533
aV\u5e7c
aV\u5bbf
aV\u8f70
aV\u8165
aV\u745e
aV\u7b56
aV\u60ac
aV\u4e18
aV\u5974
aV\u65e6
aV\u6676
aV\u6d12
aV\u5bab
aV\u5e55
aV\u90c1
aV\u5632
aV\u6c61
aV\u9e3d
aV\u594f
aV\u58f3
aV\u76ef
aV\u5f7b
aV\u68ee
aV\u593a
aV\u98a0
aV\u542f
aV\u7076
aV\u6850
aV\u813e
aV\u832b
aV\u7384
aV\u56bc
aV\u5986
aV\u7eb5
aV\u7bad
aV\u950b
aV\u6717
aV\u6dcb
aV\u7262
aV\u8b6c
aV\u575b
aV\u62e2
aV\u9177
aV\u8273
aV\u541e
aV\u51cf
aV\u810a
aV\u60a6
aV\u76b1
aV\u778e
aV\u5524
aV\u5937
aV\u9972
aV\u6db2
aV\u5431
aV\u819b
aV\u5c82
aV\u563b
aV\u6655
aV\u8be6
aV\u7089
aV\u871c
aV\u9965
aV\u6cdb
aV\u79df
aV\u84ec
aV\u65a5
aV\u5509
aV\u6263
aV\u54ce
aV\u6c9f
aV\u9756
aV\u7387
aV\u6349
aV\u5662
aV\u6876
aV\u7fc1
aV\u7b28
aV\u8106
aV\u9b4f
aV\u5e86
aV\u5565
aV\u816e
aV\u75d2
aV\u6321
aV\u568e
aV\u60e7
aV\u6491
aV\u8651
aV\u6602
aV\u53ec
aV\u6346
aV\u4ed4
aV\u6168
aV\u9500
aV\u9501
aV\u8511
aV\u96d5
aV\u9022
aV\u6241
aV\u53a6
aV\u82b3
aV\u4f69
aV\u54f2
aV\u94a9
aV\u6cfc
aV\u7f38
aV\u4fe9
aV\u800d
aV\u644a
aV\u8d56
aV\u6905
aV\u7518
aV\u9888
aV\u4fb5
aV\u7ef5
aV\u6851
aV\u5021
aV\u819d
aV\u633d
aV\u9a9a
aV\u7f51
aV\u9e26
aV\u90bb
aV\u7ad6
aV\u7763
aV\u6731
aV\u5f84
aV\u5e16
aV\u90d1
aV\u9012
aV\u51a0
aV\u6b47
aV\u756a
aV\u88ad
aV\u7b52
aV\u4f73
aV\u5323
aV\u5eb8
aV\u5351
aV\u4ead
aV\u611a
aV\u76fc
aV\u59a8
aV\u5450
aV\u629a
aV\u522e
aV\u6b8a
aV\u5ef6
aV\u8e2a
aV\u574a
aV\u6795
aV\u6280
aV\u51bb
aV\u6e2f
aV\u7978
aV\u8747
aV\u5751
aV\u565c
aV\u5361
aV\u62f1
aV\u8d81
aV\u64b0
aV\u9e2d
aV\u704c
aV\u94c3
aV\u75f4
aV\u5948
aV\u7f5a
aV\u8702
aV\u5492
aV\u5eb5
aV\u54c4
aV\u626e
aV\u6bbf
aV\u6454
aV\u77b3
aV\u53d9
aV\u57f9
aV\u632f
aV\u5ba1
aV\u59a5
aV\u60f6
aV\u8d3c
aV\u9f84
aV\u53db
aV\u718a
aV\u5587
aV\u5f25
aV\u707e
aV\u635f
aV\u730e
aV\u7838
aV\u7ec5
aV\u780d
aV\u96c1
aV\u6d78
aV\u901d
aV\u6f20
aV\u8d2b
aV\u75b2
aV\u79b9
aV\u68a2
aV\u6328
aV\u53a2
aV\u5bff
aV\u641e
aV\u723d
aV\u84b8
aV\u5eca
aV\u8bfe
aV\u5448
aV\u7130
aV\u55d3
aV\u8884
aV\u83ca
aV\u6b3a
aV\u5938
aV\u5ae9
aV\u7a0d
aV\u586b
aV\u88d9
aV\u53ee
aV\u6e85
aV\u8377
aV\u9882
aV\u50b2
aV\u5657
aV\u96c0
aV\u7fc5
aV\u6212
aV\u758f
aV\u7caa
aV\u4fc3
aV\u5c60
aV\u54e6
aV\u5c4e
aV\u618e
aV\u80c3
aV\u621a
aV\u534f
aV\u54c9
aV\u754f
aV\u6653
aV\u8d1d
aV\u5bd3
aV\u5499
aV\u8679
aV\u90ed
aV\u62d2
aV\u5154
aV\u4e39
aV\u797a
aV\u53e8
aV\u7281
aV\u68d2
aV\u66fc
aV\u88f9
aV\u8083
aV\u582a
aV\u5851
aV\u6070
aV\u58f6
aV\u5bfa
aV\u524a
aV\u7f50
aV\u6363
aV\u9686
aV\u5f13
aV\u6402
aV\u75be
aV\u90aa
aV\u54b3
aV\u6d4b
aV\u7fbd
aV\u77aa
aV\u67f1
aV\u727a
aV\u716e
aV\u5984
aV\u7a84
aV\u50ac
aV\u9ece
aV\u60f9
aV\u7aed
aV\u8986
aV\u62ec
aV\u7891
aV\u54e8
aV\u682a
aV\u6c47
aV\u6062
aV\u83bd
aV\u55e6
aV\u70db
aV\u5320
aV\u5fbd
aV\u77ac
aV\u8822
aV\u5956
aV\u62e9
aV\u82df
aV\u6109
aV\u535c
aV\u6ea2
aV\u6d1b
aV\u578b
aV\u6016
aV\u6316
aV\u5766
aV\u7c98
aV\u6cc9
aV\u55e1
aV\u5a07
aV\u9970
aV\u54b8
aV\u987d
aV\u83b2
aV\u9879
aV\u76d7
aV\u6652
aV\u5dfe
aV\u51cc
aV\u7164
aV\u8881
aV\u88f8
aV\u7b26
aV\u6284
aV\u6d3c
aV\u7fd8
aV\u960e
aV\u602f
aV\u4f10
aV\u8fa8
aV\u51d1
aV\u8270
aV\u949e
aV\u7ee3
aV\u69b4
aV\u4e8f
aV\u7267
aV\u5112
aV\u62f4
aV\u4e4f
aV\u8214
aV\u7ed1
aV\u8774
aV\u5b55
aV\u6401
aV\u8fc1
aV\u84b2
aV\u604d
aV\u6127
aV\u6bd9
aV\u8292
aV\u584c
aV\u52ab
aV\u516e
aV\u7f15
aV\u6405
aV\u68ad
aV\u6842
aV\u8d5b
aV\u8036
aV\u94ed
aV\u4fa0
aV\u50f5
aV\u6986
aV\u8bec
aV\u7a1a
aV\u676d
aV\u8a93
aV\u542d
aV\u82bd
aV\u796d
aV\u971c
aV\u6270
aV\u707c
aV\u7eb1
aV\u70bc
aV\u5401
aV\u80bf
aV\u4e88
aV\u7c07
aV\u629b
aV\u9a70
aV\u8015
aV\u6da6
aV\u7a83
aV\u54c7
aV\u7b51
aV\u6f5c
aV\u8d2a
aV\u9885
aV\u9523
aV\u62fc
aV\u74f7
aV\u80e7
aV\u5e10
aV\u6cc4
aV\u80ce
aV\u7ef8
aV\u9510
aV\u51af
aV\u679a
aV\u54df
aV\u6148
aV\u96c7
aV\u80c0
aV\u8c05
aV\u7b4b
aV\u8fd4
aV\u5ab3
aV\u7a74
aV\u515c
aV\u5352
aV\u845b
aV\u5965
aV\u72ac
aV\u62e6
aV\u6d89
aV\u518c
aV\u80de
aV\u6c13
aV\u78a7
aV\u54af
aV\u5cf0
aV\u5835
aV\u85aa
aV\u69d0
aV\u808c
aV\u5815
aV\u6df9
aV\u79f8
aV\u6784
aV\u71d5
aV\u5bf8
aV\u848b
aV\u7ed8
aV\u64ad
aV\u77ee
aV\u675c
aV\u71ac
aV\u59e8
aV\u7b7e
aV\u64a4
aV\u5f26
aV\u7529
aV\u6d4a
aV\u6d46
aV\u62df
aV\u6233
aV\u5141
aV\u8d62
aV\u77db
aV\u563f
aV\u6614
aV\u79c3
aV\u68b3
aV\u6726
aV\u963b
aV\u63a7
aV\u6342
aV\u7cb9
aV\u8471
aV\u76d0
aV\u70ad
aV\u76df
aV\u690d
aV\u6c41
aV\u5a74
aV\u8bf1
aV\u62d9
aV\u5821
aV\u788d
aV\u7ea0
aV\u7aff
aV\u63c9
aV\u814a
aV\u60e0
aV\u97e9
aV\u54aa
aV\u8baf
aV\u5fcc
aV\u9910
aV\u8e7f
aV\u8d2f
aV\u7f30
aV\u76fe
aV\u8e66
aV\u9171
aV\u888d
aV\u6c60
aV\u5d29
aV\u62c6
aV\u51ef
aV\u6413
aV\u5747
aV\u78d5
aV\u9605
aV\u6a90
aV\u80a2
aV\u501a
aV\u6805
aV\u5bb4
aV\u8d2d
aV\u8d54
aV\u52a3
aV\u53c9
aV\u8870
aV\u7184
aV\u9274
aV\u8f9f
aV\u5636
aV\u500d
aV\u4ef2
aV\u5b87
aV\u53e0
aV\u7a9c
aV\u9a73
aV\u508d
aV\u70d8
aV\u4ff1
aV\u5760
aV\u6674
aV\u8d29
aV\u9006
aV\u8a89
aV\u8e81
aV\u6ba1
aV\u7fbf
aV\u8fb0
aV\u5375
aV\u86ee
aV\u54c6
aV\u8038
aV\u8721
aV\u8fdd
aV\u708e
aV\u549a
aV\u7ade
aV\u683d
aV\u817b
aV\u8d60
aV\u6d9b
aV\u56ca
aV\u88c1
aV\u5a36
aV\u6d69
aV\u6f7c
aV\u62e7
aV\u6398
aV\u745f
aV\u6291
aV\u4fca
aV\u78be
aV\u7ea3
aV\u6ce3
aV\u5693
aV\u72ed
aV\u5e18
aV\u5a9a
aV\u8d4c
aV\u82c7
aV\u63f4
aV\u63b7
aV\u68a8
aV\u7ff0
aV\u884d
aV\u5bc5
aV\u6c88
aV\u9893
aV\u6734
aV\u8587
aV\u9738
aV\u74ee
aV\u9a84
aV\u8eaf
aV\u662d
aV\u83f2
aV\u6deb
aV\u8ba2
aV\u6c79
aV\u715e
aV\u552e
aV\u9119
aV\u5761
aV\u6208
aV\u87c6
aV\u5e9a
aV\u98d9
aV\u714c
aV\u4f30
aV\u6f0f
aV\u60a3
aV\u5c51
aV\u547b
aV\u57c3
aV\u95ef
aV\u76c8
aV\u964c
aV\u52fa
aV\u6b49
aV\u9976
aV\u9a76
aV\u7ee5
aV\u4fae
aV\u5c4f
aV\u5543
aV\u4f1e
aV\u6380
aV\u6756
aV\u5ba0
aV\u7a0e
aV\u74e3
aV\u8902
aV\u5bb0
aV\u76cf
aV\u7792
aV\u7785
aV\u840c
aV\u711a
aV\u673d
aV\u52c9
aV\u540f
aV\u4faf
aV\u553e
aV\u6b96
aV\u5527
aV\u86e4
aV\u7f55
aV\u6760
aV\u6155
aV\u5319
aV\u8d3a
aV\u918b
aV\u788c
aV\u80ae
aV\u6ed4
aV\u752b
aV\u77a5
aV\u8c26
aV\u90ca
aV\u4f8d
aV\u8302
aV\u5951
aV\u964b
aV\u6670
aV\u6269
aV\u8c31
aV\u8463
aV\u6627
aV\u9b44
aV\u94a5
aV\u4e5e
aV\u6789
aV\u809d
aV\u6da8
aV\u7ef0
aV\u5d47
aV\u7840
aV\u60e9
aV\u8305
aV\u635e
aV\u75ae
aV\u63aa
aV\u6dcc
aV\u9891
aV\u889c
aV\u8d31
aV\u5b8f
aV\u7599
aV\u69fd
aV\u68af
aV\u95fa
aV\u7629
aV\u55bb
aV\u6d74
aV\u9521
aV\u7a46
aV\u90ae
aV\u50da
aV\u557c
aV\u6e3a
aV\u9a6e
aV\u8bde
aV\u9699
aV\u6813
aV\u8be7
aV\u8861
aV\u61be
aV\u8102
aV\u9f0e
aV\u6687
aV\u4ea9
aV\u6052
aV\u5faa
aV\u7b77
aV\u7545
aV\u6123
aV\u892a
aV\u62bc
aV\u6055
aV\u9e7f
aV\u5f79
aV\u4e56
aV\u79c6
aV\u4e38
aV\u8d74
aV\u8c28
aV\u70eb
aV\u9709
aV\u5992
aV\u8e6d
aV\u8521
aV\u8c0e
aV\u5220
aV\u7b1b
aV\u5e01
aV\u7a3d
aV\u62c2
aV\u77e9
aV\u5ec9
aV\u53fc
aV\u8109
aV\u7b79
aV\u80ef
aV\u841d
aV\u9080
aV\u4fcf
aV\u7bee
aV\u5561
aV\u7bd3
aV\u5c65
aV\u9526
aV\u8854
aV\u7ee9
aV\u7ed2
aV\u9017
aV\u70ec
aV\u5c9b
aV\u4ec6
aV\u5be1
aV\u7edc
aV\u88f3
aV\u815a
aV\u8e48
aV\u622e
aV\u895f
aV\u5415
aV\u4f01
aV\u5996
aV\u52e4
aV\u5179
aV\u625b
aV\u9877
aV\u52ff
aV\u8d8b
aV\u803f
aV\u5ca9
aV\u6487
aV\u55fd
aV\u9675
aV\u5f17
aV\u5578
aV\u50e7
aV\u7751
aV\u7199
aV\u9640
aV\u6014
aV\u55e4
aV\u868a
aV\u73c2
aV\u5026
aV\u90a6
aV\u6566
aV\u8d9f
aV\u9038
aV\u5de2
aV\u4ed3
aV\u658b
aV\u8c79
aV\u76f2
aV\u6345
aV\u6500
aV\u9a7e
aV\u7fa1
aV\u6c82
aV\u660c
aV\u8d26
aV\u5496
aV\u65a9
aV\u63ea
aV\u846b
aV\u8c41
aV\u55a7
aV\u7a57
aV\u6350
aV\u8ba5
aV\u8155
aV\u94fe
aV\u7784
aV\u68a7
aV\u765e
aV\u5d16
aV\u7fd4
aV\u7728
aV\u840e
aV\u7efd
aV\u6817
aV\u67cf
aV\u8bf5
aV\u71e5
aV\u632a
aV\u62d8
aV\u886c
aV\u9f87
aV\u818f
aV\u57ab
aV\u8428
aV\u96b6
aV\u5fa1
aV\u618b
aV\u6252
aV\u8d4b
aV\u5b99
aV\u7092
aV\u54e7
aV\u8885
aV\u6cb8
aV\u5e05
aV\u971e
aV\u6cca
aV\u6bb3
aV\u4fef
aV\u7cd5
aV\u812f
aV\u5b85
aV\u4ea5
aV\u5520
aV\u64a9
aV\u5ef7
aV\u838e
aV\u4fa3
aV\u8fc8
aV\u8046
aV\u5a76
aV\u7ef7
aV\u4e54
aV\u6912
aV\u6f09
aV\u5993
aV\u7855
aV\u6577
aV\u8017
aV\u9a7b
aV\u72e1
aV\u664c
aV\u7538
aV\u55d2
aV\u5140
aV\u6525
aV\u5085
aV\u94f2
aV\u52cb
aV\u718f
aV\u51fd
aV\u8bb6
aV\u9075
aV\u5618
aV\u8df5
aV\u79d2
aV\u5594
aV\u8d6b
aV\u5f0a
aV\u7d6e
aV\u97f5
aV\u6e0a
aV\u7638
aV\u6f47
aV\u70e4
aV\u5239
aV\u9493
aV\u54d2
aV\u664f
aV\u6846
aV\u7737
aV\u5f77
aV\u8c2c
aV\u65fa
aV\u7433
aV\u7109
aV\u9576
aV\u5378
aV\u643a
aV\u7682
aV\u8ff8
aV\u8650
aV\u9655
aV\u5353
aV\u5243
aV\u84c4
aV\u7c38
aV\u717d
aV\u8bc0
aV\u8e6c
aV\u79e4
aV\u57d9
aV\u789f
aV\u5203
aV\u5740
aV\u79bd
aV\u5514
aV\u6869
aV\u8d21
aV\u9539
aV\u68f1
aV\u7736
aV\u5146
aV\u5609
aV\u59fb
aV\u56a3
aV\u699c
aV\u8fed
aV\u8bc3
aV\u59dc
aV\u752d
aV\u5ac9
aV\u901b
aV\u8dcb
aV\u66ae
aV\u51f8
aV\u77ff
aV\u9e70
aV\u73b2
aV\u6666
aV\u5a92
aV\u714e
aV\u5c27
aV\u5792
aV\u5a49
aV\u4f36
aV\u5e93
aV\u733e
aV\u4e2b
aV\u5b7d
aV\u7b50
aV\u50fb
aV\u97e6
aV\u51ff
aV\u6d95
aV\u552c
aV\u9508
aV\u9e45
aV\u7985
aV\u6d47
aV\u6f84
aV\u65e8
aV\u7a3b
aV\u6e83
aV\u6ede
aV\u77e2
aV\u8681
aV\u5583
aV\u5783
aV\u9889
aV\u969c
aV\u9992
aV\u6d85
aV\u5366
aV\u87f9
aV\u8f68
aV\u6bb7
aV\u5d4c
aV\u9601
aV\u62c4
aV\u6c5d
aV\u772f
aV\u614e
aV\u5420
aV\u8bb3
aV\u60da
aV\u55bd
aV\u8d50
aV\u867e
aV\u6410
aV\u75c7
aV\u560e
aV\u75a4
aV\u8482
aV\u5490
aV\u8eac
aV\u640f
aV\u5256
aV\u6f13
aV\u53ae
aV\u8dc4
aV\u54bb
aV\u6838
aV\u5455
aV\u89c5
aV\u56da
aV\u5300
aV\u6e17
aV\u5983
aV\u62d3
aV\u917f
aV\u8d3e
aV\u988a
aV\u7cd9
aV\u655e
aV\u7f0e
aV\u8859
aV\u5544
aV\u65a7
aV\u503a
aV\u8d5a
aV\u542e
aV\u7ede
aV\u822a
aV\u6444
aV\u9e64
aV\u7ea4
aV\u952e
aV\u8910
aV\u795f
aV\u6c76
aV\u5188
aV\u64ae
aV\u7779
aV\u6f6d
aV\u74a7
aV\u7eb2
aV\u59ca
aV\u7597
aV\u6790
aV\u51a5
aV\u9eef
aV\u7470
aV\u6886
aV\u548b
aV\u6c1b
aV\u8f98
aV\u819c
aV\u6273
aV\u6177
aV\u6ca5
aV\u8086
aV\u63a0
aV\u6656
aV\u821c
aV\u6dd8
aV\u9a87
aV\u54dd
aV\u62d7
aV\u537f
aV\u6c93
aV\u5f8a
aV\u62cc
aV\u762b
aV\u63e3
aV\u8231
aV\u631f
aV\u6414
aV\u6e23
aV\u55f7
aV\u7554
aV\u88b1
aV\u8e09
aV\u6c9b
aV\u5254
aV\u4e7e
aV\u5f27
aV\u5577
aV\u88d5
aV\u60ed
aV\u8513
aV\u95f0
aV\u55e8
aV\u8c10
aV\u70d9
aV\u8877
aV\u5c97
aV\u64c5
aV\u90b9
aV\u97e7
aV\u953b
aV\u59e5
aV\u65f7
aV\u7802
aV\u5631
aV\u69db
aV\u8043
aV\u53fd
aV\u62e3
aV\u80ba
aV\u5486
aV\u72c8
aV\u8bca
aV\u74e2
aV\u998d
aV\u5c61
aV\u4e15
aV\u7f00
aV\u72de
aV\u82ac
aV\u65ec
aV\u5480
aV\u8fe6
aV\u7f1a
aV\u8be2
aV\u9a7c
aV\u8bdb
aV\u5fa8
aV\u970d
aV\u5cd2
aV\u63cd
aV\u62e4
aV\u8461
aV\u80c1
aV\u5564
aV\u8dbe
aV\u6ca6
aV\u6400
aV\u7ca5
aV\u763e
aV\u7410
aV\u65f1
aV\u5fff
aV\u5be8
aV\u762a
aV\u5429
aV\u5466
aV\u5a25
aV\u9504
aV\u73ab
aV\u7f2d
aV\u81c0
aV\u55e5
aV\u5be5
aV\u6479
aV\u83b9
aV\u58a9
aV\u7f09
aV\u8338
aV\u8925
aV\u68b0
aV\u94f8
aV\u9063
aV\u62c7
aV\u5a1c
aV\u6da9
aV\u57df
aV\u4ea2
aV\u6fa1
aV\u83e9
aV\u672d
aV\u8682
aV\u9b45
aV\u6863
aV\u7235
aV\u7a3c
aV\u8096
aV\u9165
aV\u6606
aV\u916c
aV\u5a31
aV\u5398
aV\u6db5
aV\u51f9
aV\u865e
aV\u7fdf
aV\u4e10
aV\u8e4b
aV\u5478
aV\u62ed
aV\u79fd
aV\u7977
aV\u62a1
aV\u5b09
aV\u62fd
aV\u8713
aV\u8c1b
aV\u4f84
aV\u6daf
aV\u821f
aV\u55ef
aV\u72f0
aV\u9a6f
aV\u5406
aV\u5bdd
aV\u5f98
aV\u82d4
aV\u873b
aV\u5764
aV\u7efa
aV\u8206
aV\u7511
aV\u8671
aV\u804b
aV\u99a8
aV\u62da
aV\u7a23
aV\u54ee
aV\u8695
aV\u8404
aV\u5962
aV\u5029
aV\u61ca
aV\u64ce
aV\u5c34
aV\u5c2c
aV\u7738
aV\u8bc8
aV\u7bf7
aV\u75e8
aV\u8346
aV\u8fbd
aV\u6dd1
aV\u67ff
aV\u8c24
aV\u739b
aV\u6590
aV\u6518
aV\u8c0a
aV\u85c9
aV\u9e9f
aV\u759a
aV\u5241
aV\u634e
aV\u9aa4
aV\u54d0
aV\u7aa5
aV\u63fd
aV\u8058
aV\u9ecf
aV\u5eb6
aV\u7eca
aV\u7b5b
aV\u956f
aV\u6ee5
aV\u62bb
aV\u549b
aV\u9cd6
aV\u6467
aV\u9661
aV\u6dc5
aV\u50a8
aV\u7ce0
aV\u808b
aV\u6ee8
aV\u67a3
aV\u7a9f
aV\u6ca7
aV\u7da6
aV\u5436
aV\u7ebd
aV\u6dee
aV\u573e
aV\u8bc5
aV\u89d1
aV\u9f9f
aV\u8638
aV\u830e
aV\u6d52
aV\u6e20
aV\u5e15
aV\u97a0
aV\u7960
aV\u6073
aV\u849c
aV\u8be1
aV\u853d
aV\u708a
aV\u71a0
aV\u6485
aV\u9ebc
aV\u70ab
aV\u608d
aV\u7940
aV\u5ca8
aV\u9e3f
aV\u695e
aV\u66f3
aV\u4ea8
aV\u6cfb
aV\u630e
aV\u5a7f
aV\u7a20
aV\u88c6
aV\u86d9
aV\u8350
aV\u803d
aV\u5a3c
aV\u5e90
aV\u8700
aV\u829d
aV\u777e
aV\u5e06
aV\u5b5a
aV\u5f6d
aV\u5471
aV\u8783
aV\u998b
aV\u5c39
aV\u6bef
aV\u9570
aV\u75e3
aV\u9ca7
aV\u9a79
aV\u5bc7
aV\u4f51
aV\u8f9c
aV\u6e58
aV\u997a
aV\u5659
aV\u4fa6
aV\u766b
aV\u9535
aV\u7fe9
aV\u79e9
aV\u59be
aV\u7a8d
aV\u7b0b
aV\u4e19
aV\u69bb
aV\u9cde
aV\u6be1
aV\u667e
aV\u749c
aV\u949d
aV\u6f88
aV\u7729
aV\u6bc5
aV\u94ee
aV\u8537
aV\u58ec
aV\u6390
aV\u6de4
aV\u5ed3
aV\u8d30
aV\u8475
aV\u5014
aV\u6020
aV\u776c
aV\u8d1e
aV\u978d
aV\u7ba9
aV\u8e31
aV\u6f58
aV\u776b
aV\u60bc
aV\u7b95
aV\u7efc
aV\u60af
aV\u566a
aV\u8892
aV\u9b41
aV\u86a9
aV\u579b
aV\u5522
aV\u5d3d
aV\u8574
aV\u94a6
aV\u7329
aV\u63ba
aV\u8869
aV\u840d
aV\u8815
aV\u90b5
aV\u61ff
aV\u7f28
aV\u6c83
aV\u7011
aV\u655d
aV\u5a32
aV\u785d
aV\u536f
aV\u6593
aV\u5858
aV\u57a2
aV\u88f4
aV\u6f3e
aV\u9716
aV\u6292
aV\u52b1
aV\u7586
aV\u7abf
aV\u9ad3
aV\u64c2
aV\u655b
aV\u8fea
aV\u5580
aV\u589f
aV\u73ca
aV\u75f0
aV\u63e9
aV\u60d8
aV\u6897
aV\u54bf
aV\u5195
aV\u5fe1
aV\u76c5
aV\u7c9f
aV\u75c9
aV\u5e1a
aV\u9896
aV\u9609
aV\u663c
aV\u6512
aV\u7c3f
aV\u997d
aV\u632b
aV\u71b9
aV\u6005
aV\u6320
aV\u5345
aV\u72ee
aV\u5608
aV\u84d1
aV\u900a
aV\u63ac
aV\u768e
aV\u6dc7
aV\u829c
aV\u90a8
aV\u533f
aV\u62cb
aV\u9edd
aV\u52df
aV\u65bc
aV\u8c1f
aV\u6816
aV\u7948
aV\u8210
aV\u62bf
aV\u725f
aV\u781a
aV\u64d2
aV\u55dc
aV\u6cf3
aV\u8424
aV\u8037
aV\u68d5
aV\u5189
aV\u5ae6
aV\u8019
aV\u60ee
aV\u864f
aV\u7b5d
aV\u94c5
aV\u9a88
aV\u5482
aV\u549d
aV\u568f
aV\u7360
aV\u5baa
aV\u81ca
aV\u86c6
aV\u9685
aV\u4fd0
aV\u68cb
aV\u901e
aV\u5cad
aV\u96cf
aV\u5c94
aV\u8304
aV\u8258
aV\u7ca4
aV\u8749
aV\u9ab8
aV\u6a50
aV\u76c2
aV\u8e0c
aV\u595a
aV\u9a8f
aV\u5567
aV\u873f
aV\u8dfa
aV\u5d2d
aV\u8328
aV\u9890
aV\u7261
aV\u53a5
aV\u8680
aV\u9e4f
aV\u6b93
aV\u9ac5
aV\u5308
aV\u8df7
aV\u773a
aV\u564e
aV\u631b
aV\u5228
aV\u80e5
aV\u6ea5
aV\u6a31
aV\u9ae6
aV\u6748
aV\u4fd8
aV\u62a0
aV\u902e
aV\u6691
aV\u643d
aV\u60eb
aV\u6684
aV\u8ddb
aV\u9e4a
aV\u9e33
aV\u8baa
aV\u6853
aV\u5944
aV\u76d4
aV\u5960
aV\u64b5
aV\u72c4
aV\u8712
aV\u558b
aV\u8fc2
aV\u5242
aV\u761f
aV\u4f65
aV\u8200
aV\u7aa8
aV\u83c7
aV\u4fe8
aV\u62ce
aV\u8327
aV\u8f74
aV\u550f
aV\u7eba
aV\u83cc
aV\u6421
aV\u9edb
aV\u9e2f
aV\u832c
aV\u96cd
aV\u527f
aV\u5f1b
aV\u4f3a
aV\u6c8f
aV\u6b24
aV\u6e0d
aV\u6115
aV\u4fdf
aV\u63d6
aV\u8f85
aV\u567c
aV\u4e69
aV\u9cdd
aV\u6bcb
aV\u9b03
aV\u51b6
aV\u9f3e
aV\u5cfb
aV\u60f0
aV\u5494
aV\u4f43
aV\u7ece
aV\u6e2d
aV\u5dcd
aV\u58e4
aV\u8bfd
aV\u5180
aV\u5384
aV\u4ed1
aV\u7b03
aV\u6a71
aV\u587e
aV\u903b
aV\u854a
aV\u6a80
aV\u952f
aV\u8d3f
aV\u77eb
aV\u66a7
aV\u94db
aV\u51cb
aV\u4e5c
aV\u609a
aV\u50a9
aV\u94a7
aV\u5c49
aV\u6c69
aV\u6caa
aV\u60fa
aV\u8c25
aV\u90e1
aV\u851a
aV\u6b86
aV\u6868
aV\u5a4a
aV\u81a8
aV\u7c41
aV\u5f6a
aV\u5eff
aV\u5162
aV\u5a6a
aV\u7422
aV\u58d5
aV\u60f4
aV\u8bbc
aV\u6376
aV\u600f
aV\u8e51
aV\u60bb
aV\u6f7a
aV\u9149
aV\u524c
aV\u9524
aV\u5654
aV\u6371
aV\u7aa3
aV\u86db
aV\u7b06
aV\u7b75
aV\u55b3
aV\u78c1
aV\u60d5
aV\u6c70
aV\u574d
aV\u8247
aV\u5f64
aV\u94ff
aV\u8beb
aV\u8d2c
aV\u78b1
aV\u8912
aV\u7405
aV\u65cc
aV\u8d38
aV\u4e4d
aV\u548f
aV\u574e
aV\u5ba6
aV\u6bb4
aV\u9163
aV\u9ab7
aV\u7ab8
aV\u8f95
aV\u7bf1
aV\u5e1c
aV\u6d8e
aV\u55df
aV\u8c7a
aV\u8e39
aV\u5570
aV\u71ce
aV\u7be1
aV\u6c81
aV\u6c16
aV\u85b0
aV\u82de
aV\u4ed5
aV\u6b67
aV\u8c27
aV\u6d3d
aV\u70b3
aV\u84e6
aV\u6df3
aV\u900d
aV\u968b
aV\u557e
aV\u675e
aV\u9093
aV\u53e9
aV\u7f34
aV\u6021
aV\u8f69
aV\u5281
aV\u6829
aV\u752c
aV\u592d
aV\u9187
aV\u6b79
aV\u8611
aV\u9525
aV\u5151
aV\u70bd
aV\u507f
aV\u5600
aV\u4fa5
aV\u6a61
aV\u75f9
aV\u85af
aV\u504e
aV\u94e1
aV\u9b13
aV\u9ca4
aV\u553b
aV\u6e14
aV\u5e87
aV\u6555
aV\u6da1
aV\u827e
aV\u4f88
aV\u6f9c
aV\u5238
aV\u6f31
aV\u9955
aV\u54d5
aV\u70af
aV\u6026
aV\u7a98
aV\u7f94
aV\u96cc
aV\u778c
aV\u7c7d
aV\u7830
aV\u8c15
aV\u4fa8
aV\u7fb2
aV\u8737
aV\u7f06
aV\u7634
aV\u8d4e
aV\u545b
aV\u6c8c
aV\u67ad
aV\u5955
aV\u8f71
aV\u4f6f
aV\u5555
aV\u7b20
aV\u8d84
aV\u859b
aV\u6dc0
aV\u8bd8
aV\u5658
aV\u8d94
aV\u8d66
aV\u8921
aV\u54de
aV\u82d1
aV\u5624
aV\u7a92
aV\u94ce
aV\u64de
aV\u621f
aV\u8335
aV\u7c0c
aV\u8944
aV\u5c09
aV\u7e82
aV\u796f
aV\u6a35
aV\u6b89
aV\u5f66
aV\u8549
aV\u527d
aV\u68c2
aV\u5784
aV\u97ed
aV\u531d
aV\u6fe1
aV\u82ad
aV\u67ef
aV\u5639
aV\u6556
aV\u6cae
aV\u6cc5
aV\u620a
aV\u7b4f
aV\u4ebf
aV\u79c9
aV\u8c11
aV\u6f66
aV\u8715
aV\u7984
aV\u9afb
aV\u5777
aV\u768b
aV\u7cbd
aV\u98d5
aV\u8f97
aV\u733f
aV\u62c8
aV\u54fd
aV\u87ba
aV\u576f
aV\u7409
aV\u5ad6
aV\u551b
aV\u853c
aV\u5ced
aV\u55e3
aV\u6808
aV\u6a1f
aV\u60b4
aV\u8c2d
aV\u6ed3
aV\u4ffe
aV\u8654
aV\u6860
aV\u8bb7
aV\u84bf
aV\u9985
aV\u8f73
aV\u7476
aV\u8717
aV\u5fd1
aV\u6840
aV\u8dda
aV\u8d41
aV\u9f8a
aV\u9041
aV\u7316
aV\u7540
aV\u8364
aV\u6d9f
aV\u4e1e
aV\u8e87
aV\u6e43
aV\u8e59
aV\u68d8
aV\u79ba
aV\u9611
aV\u7eef
aV\u954a
aV\u4ff8
aV\u86fe
aV\u55dd
aV\u6194
aV\u6396
aV\u64c0
aV\u68b5
aV\u9f8c
aV\u7fcc
aV\u7115
aV\u8c12
aV\u7696
aV\u9e43
aV\u85fb
aV\u8e1e
aV\u54fa
aV\u9050
aV\u4ec4
aV\u780c
aV\u75ea
aV\u988d
aV\u8748
aV\u5669
aV\u6a58
aV\u86f0
aV\u60b8
aV\u7099
aV\u5f70
aV\u7eda
aV\u6f8e
aV\u8426
aV\u9631
aV\u5f29
aV\u57a3
aV\u7c2a
aV\u631a
aV\u67ab
aV\u7b8d
aV\u784c
aV\u692d
aV\u77bb
aV\u69a8
aV\u82b8
aV\u8760
aV\u82f9
aV\u951f
aV\u88e2
aV\u8bcf
aV\u8c1c
aV\u645e
aV\u82db
aV\u5550
aV\u9e20
aV\u86b1
aV\u6c90
aV\u88d4
aV\u9774
aV\u915d
aV\u8bb9
aV\u7eeb
aV\u7efe
aV\u91ba
aV\u5fcf
aV\u8f84
aV\u8230
aV\u78fa
aV\u9619
aV\u5e1b
aV\u9a6d
aV\u69cc
aV\u5a04
aV\u9706
aV\u8c62
aV\u520d
aV\u76f9
aV\u8757
aV\u9522
aV\u64ac
aV\u5e61
aV\u9798
aV\u5bb5
aV\u6cbc
aV\u94b3
aV\u857e
aV\u61e6
aV\u5ce8
aV\u7622
aV\u65ab
aV\u8bb4
aV\u5953
aV\u6c72
aV\u5d0e
aV\u5c79
aV\u7791
aV\u5c8c
aV\u7bdd
aV\u57ae
aV\u6854
aV\u5530
aV\u5deb
aV\u6a47
aV\u94b9
aV\u79a7
aV\u852b
aV\u500f
aV\u9761
aV\u659f
aV\u5c4c
aV\u556e
aV\u732c
aV\u6866
aV\u8e52
aV\u562d
aV\u8d3b
aV\u6eba
aV\u548e
aV\u8c34
aV\u7678
aV\u7f24
aV\u7693
aV\u6b83
aV\u9697
aV\u627c
aV\u6920
aV\u53f1
aV\u9175
aV\u51a2
aV\u5f11
aV\u8398
aV\u5fd0
aV\u95e9
aV\u78a1
aV\u86ca
aV\u54d4
aV\u4f83
aV\u8c1a
aV\u63b0
aV\u81b3
aV\u5ae3
aV\u566c
aV\u5f5d
aV\u952d
aV\u9881
aV\u51db
aV\u8c0f
aV\u8c4c
aV\u77b0
aV\u7f2a
aV\u5121
aV\u593c
aV\u80ed
aV\u57e0
aV\u4f5a
aV\u6635
aV\u60c6
aV\u9eb8
aV\u6e6e
aV\u6a44
aV\u9610
aV\u737e
aV\u80b4
aV\u63b3
aV\u5080
aV\u59b2
aV\u9a86
aV\u75ab
aV\u607a
aV\u690b
aV\u4f0e
aV\u6da4
aV\u61a8
aV\u9ed4
aV\u504c
aV\u8759
aV\u6002
aV\u79be
aV\u6043
aV\u7b94
aV\u87c0
aV\u523d
aV\u6d43
aV\u73d1
aV\u78f7
aV\u5e4c
aV\u7b38
aV\u6984
aV\u5703
aV\u9083
aV\u57c2
aV\u7cb2
aV\u55ec
aV\u6da3
aV\u86aa
aV\u8052
aV\u961c
aV\u77dc
aV\u710a
aV\u8d37
aV\u75b9
aV\u83c1
aV\u606c
aV\u9ad1
aV\u5364
aV\u8bf3
aV\u9529
aV\u9e25
aV\u75d4
aV\u4fed
aV\u8c29
aV\u9556
aV\u88e8
aV\u81ba
aV\u525c
aV\u6c24
aV\u75b5
aV\u9cc5
aV\u7a96
aV\u6ccc
aV\u56f1
aV\u86af
aV\u95f8
aV\u8f72
aV\u6e32
aV\u6c32
aV\u57d4
aV\u51bd
aV\u6749
aV\u8bab
aV\u8389
aV\u620c
aV\u70ac
aV\u5c4a
aV\u972d
aV\u874c
aV\u9abc
aV\u7a91
aV\u747e
aV\u7aa0
aV\u63c6
aV\u903e
aV\u72e9
aV\u5df3
aV\u5a34
aV\u6c50
aV\u5043
aV\u6063
aV\u701a
aV\u87cb
aV\u8151
aV\u8110
aV\u8027
aV\u8fe2
aV\u7f81
aV\u8d4a
aV\u8718
aV\u6a0a
aV\u6d5a
aV\u5b7a
aV\u9e37
aV\u743c
aV\u8d42
aV\u7766
aV\u8237
aV\u7d0a
aV\u7280
aV\u6d94
aV\u6d66
aV\u7284
aV\u4f50
aV\u5cd9
aV\u7980
aV\u8693
aV\u94b5
aV\u996c
aV\u690e
aV\u7b19
aV\u6eb6
aV\u8202
aV\u500c
aV\u904f
aV\u4ec3
aV\u723b
aV\u6b7c
aV\u7096
aV\u814b
aV\u83ba
aV\u71ee
aV\u77d7
aV\u5ff1
aV\u5941
aV\u59da
aV\u6382
aV\u6cde
aV\u914c
aV\u7c27
aV\u6332
aV\u6773
aV\u6dd6
aV\u4f2b
aV\u6845
aV\u5605
aV\u6064
aV\u7ff1
aV\u6c27
aV\u9616
aV\u85e9
aV\u8367
aV\u5f6c
aV\u728a
aV\u745c
aV\u623e
aV\u56e4
aV\u6fb3
aV\u66d9
aV\u6003
aV\u5f3c
aV\u7339
aV\u74a8
aV\u5453
aV\u77bf
aV\u5a62
aV\u8708
aV\u55d1
aV\u5e62
aV\u99a5
aV\u6289
aV\u6f2a
aV\u5443
aV\u7bc6
aV\u8c55
aV\u562c
aV\u5b75
aV\u998a
aV\u9ef1
aV\u85d3
aV\u559f
aV\u7435
aV\u4f62
aV\u7898
aV\u6963
aV\u7bd9
aV\u867b
aV\u7fd5
aV\u5de9
aV\u8559
aV\u8e4a
aV\u7bd1
aV\u62ef
aV\u6006
aV\u9a8b
aV\u6cef
aV\u5ce1
aV\u7194
aV\u7eb6
aV\u6f29
aV\u634b
aV\u7480
aV\u4f3d
aV\u742c
aV\u6da7
aV\u7656
aV\u8c78
aV\u68e0
aV\u61a7
aV\u6a79
aV\u5664
aV\u6096
aV\u6b46
aV\u5b51
aV\u5c7f
aV\u7620
aV\u9994
aV\u8c1d
aV\u8343
aV\u7352
aV\u8334
aV\u7afa
aV\u620d
aV\u86a3
aV\u9a9f
aV\u55d6
aV\u7809
aV\u5b73
aV\u7f05
aV\u96c9
aV\u91dc
aV\u5773
aV\u836a
aV\u970f
aV\u5a11
aV\u82af
aV\u8098
aV\u968d
aV\u8198
aV\u5b93
aV\u5537
aV\u56d4
aV\u9713
aV\u55d4
aV\u4f6c
aV\u7ee2
aV\u891a
aV\u61f5
aV\u7b9d
aV\u86a4
aV\u64b8
aV\u6636
aV\u75de
aV\u4f8f
aV\u60e6
aV\u9a81
aV\u5f18
aV\u6977
aV\u8f8d
aV\u7eac
aV\u94f0
aV\u8113
aV\u6f36
aV\u891b
aV\u8d73
aV\u8300
aV\u6dc6
aV\u9a7f
aV\u9968
aV\u8004
aV\u8d32
aV\u6eaf
aV\u8f99
aV\u9668
aV\u5c25
aV\u9551
aV\u7691
aV\u9704
aV\u4e53
aV\u637a
aV\u67b7
aV\u64b7
aV\u6954
aV\u7f44
aV\u66a8
aV\u78ec
aV\u642a
aV\u541d
aV\u538d
aV\u5e54
aV\u987c
aV\u6b9b
aV\u8d5d
aV\u56e1
aV\u6775
aV\u95fe
aV\u8709
aV\u777d
aV\u8bee
aV\u8174
aV\u6ed5
aV\u75d8
aV\u5f89
aV\u608c
aV\u502d
aV\u572d
aV\u5f9c
aV\u6079
aV\u9542
aV\u620e
aV\u4f63
aV\u63ff
aV\u5135
aV\u5885
aV\u8be3
aV\u7337
aV\u970e
aV\u98a7
aV\u59a9
aV\u5ce6
aV\u9562
aV\u5477
aV\u852c
aV\u6eb1
aV\u8934
aV\u82ae
aV\u507b
aV\u6774
aV\u7fb9
aV\u907d
aV\u96a7
aV\u61c8
aV\u75e7
aV\u7ef6
aV\u989b
aV\u8f94
aV\u67a2
aV\u80e4
aV\u566b
aV\u9f9b
aV\u56f5
aV\u5f99
aV\u8de4
aV\u7818
aV\u91c9
aV\u7ead
aV\u9e6d
aV\u8403
aV\u9ca8
aV\u61ac
aV\u70f9
aV\u65ed
aV\u9776
aV\u7455
aV\u6664
aV\u9503
aV\u8763
aV\u67e2
aV\u4e52
aV\u9e44
aV\u575d
aV\u8354
aV\u5c96
aV\u6e4d
aV\u6427
aV\u6d35
aV\u76ce
aV\u90e2
aV\u764c
aV\u86ed
aV\u7f26
aV\u5abe
aV\u80da
aV\u76bf
aV\u6448
aV\u8d58
aV\u8c04
aV\u6c40
aV\u71a8
aV\u7726
aV\u6867
aV\u8360
aV\u52d8
aV\u5106
aV\u680b
aV\u5dc5
aV\u67e9
aV\u8e74
aV\u7525
aV\u7425
aV\u69c1
aV\u80db
aV\u5e0f
aV\u6dae
aV\u5c63
aV\u80b1
aV\u8fc4
aV\u990d
aV\u5ae1
aV\u78a3
aV\u94e7
aV\u6175
aV\u8dd7
aV\u7a79
aV\u775a
aV\u745a
aV\u5b5b
aV\u8f7c
aV\u9701
aV\u6ee4
aV\u8bcc
aV\u7bc1
aV\u5b40
aV\u6862
aV\u6d4f
aV\u80aa
aV\u6b87
aV\u728b
aV\u5623
aV\u4fde
aV\u79e7
aV\u5892
aV\u7aa6
aV\u94ba
aV\u835a
aV\u9e66
aV\u54a9
aV\u5768
aV\u75bd
aV\u533e
aV\u7a70
aV\u73c0
aV\u6078
aV\u9975
aV\u81fb
aV\u749e
aV\u9647
aV\u80be
aV\u688f
aV\u8ba3
aV\u6924
aV\u9984
aV\u9991
aV\u4eb5
aV\u8e35
aV\u9739
aV\u6d9d
aV\u6800
aV\u78cb
aV\u55fe
aV\u9091
aV\u696b
aV\u7b3a
aV\u9550
aV\u8bd9
aV\u783a
aV\u8bd2
aV\u828d
aV\u97af
aV\u94d9
aV\u814c
aV\u795c
aV\u5b70
aV\u8722
aV\u6de6
aV\u8f67
aV\u97ec
aV\u556c
aV\u6855
aV\u9981
aV\u7941
aV\u6714
aV\u81bb
aV\u6db8
aV\u715c
aV\u637b
aV\u61a9
aV\u64bc
aV\u607f
aV\u8e76
aV\u54a3
aV\u7322
aV\u73b7
aV\u58d1
aV\u872e
aV\u96f9
aV\u8782
aV\u6e5b
aV\u8299
aV\u6d07
aV\u8517
aV\u9e51
aV\u5fe4
aV\u742a
aV\u7350
aV\u6ec2
aV\u6035
aV\u5484
aV\u6fd2
aV\u82a5
aV\u5497
aV\u75c2
aV\u63ce
aV\u78ca
aV\u8936
aV\u6ca4
aV\u5575
aV\u5506
aV\u8314
aV\u7eab
aV\u9532
aV\u7ebe
aV\u8018
aV\u564c
aV\u8e70
aV\u5a13
aV\u9528
aV\u4e98
aV\u96bd
aV\u8309
aV\u8f96
aV\u502a
aV\u7825
aV\u5685
aV\u54d9
aV\u828b
aV\u9b46
aV\u874e
aV\u8e69
aV\u54ab
aV\u5481
aV\u63a3
aV\u82b9
aV\u9cc4
aV\u6e0e
aV\u5fea
aV\u5d14
aV\u94e0
aV\u84c1
aV\u8e1d
aV\u652b
aV\u8084
aV\u7bfe
aV\u6942
aV\u5ccb
aV\u7ecc
aV\u58f9
aV\u835e
aV\u6a59
aV\u5599
aV\u9c88
aV\u8725
aV\u6b3b
aV\u83e0
aV\u6893
aV\u9497
aV\u84cd
aV\u8be8
aV\u5d99
aV\u6e24
aV\u725d
aV\u72f2
aV\u85d5
aV\u96f3
aV\u9ac1
aV\u7f42
aV\u684e
aV\u7f01
aV\u8a79
aV\u8a07
aV\u5811
aV\u5ffe
aV\u8bf0
aV\u4f5d
aV\u7436
aV\u7fbc
aV\u6004
aV\u59aa
aV\u5428
aV\u625c
aV\u94e9
aV\u594e
aV\u7823
aV\u9f0b
aV\u60cb
aV\u634d
aV\u9e35
aV\u9698
aV\u65a1
aV\u78b4
aV\u6aa9
aV\u6bd3
aV\u7a17
aV\u701b
aV\u786b
aV\u5187
aV\u90dd
aV\u571c
aV\u7173
aV\u89e5
aV\u6d0c
aV\u94dd
aV\u5321
aV\u8a8a
aV\u67ec
aV\u520e
aV\u5621
aV\u94e2
aV\u8d2e
aV\u576a
aV\u8e2e
aV\u8c00
aV\u7426
aV\u5f8c
aV\u7fe1
aV\u95fd
aV\u8c17
aV\u7313
aV\u8845
aV\u8c68
aV\u65ce
aV\u5ab2
aV\u4ee8
aV\u5b71
aV\u5d34
aV\u647a
aV\u56eb
aV\u7f31
aV\u55f3
aV\u5997
aV\u5919
aV\u82d3
aV\u62a8
aV\u58c5
aV\u7579
aV\u699b
aV\u6930
aV\u9e28
aV\u8301
aV\u54a4
aV\u5739
aV\u7762
aV\u95f6
aV\u76cd
aV\u8bdf
aV\u8401
aV\u832f
aV\u86c0
aV\u97f6
aV\u680a
aV\u605a
aV\u8e05
aV\u7962
aV\u74ff
aV\u7594
aV\u98a2
aV\u5ff8
aV\u7b25
aV\u9a78
aV\u7cdc
aV\u956c
aV\u9974
aV\u90b1
aV\u7f19
aV\u759f
aV\u66be
aV\u729f
aV\u8d20
aV\u626a
aV\u6029
aV\u6b38
aV\u7624
aV\u7578
aV\u9062
aV\u98e8
aV\u63c4
aV\u6059
aV\u6874
aV\u5dfd
aV\u62ee
aV\u809b
aV\u7a37
aV\u4fda
aV\u5a77
aV\u6387
aV\u8006
aV\u8734
aV\u84c9
aV\u7252
aV\u6bd7
aV\u8d43
aV\u679e
aV\u86c9
aV\u71e7
aV\u88d8
aV\u7b24
aV\u5bb8
aV\u6c28
aV\u7583
aV\u6d93
aV\u94ae
aV\u572e
aV\u9e5e
aV\u9988
aV\u693f
aV\u50c7
aV\u55f5
aV\u84ff
aV\u643f
aV\u9997
aV\u6e4e
aV\u6f78
aV\u949b
aV\u68e3
aV\u9aef
aV\u53f5
aV\u8c21
aV\u6100
aV\u9e2a
aV\u724d
aV\u9563
aV\u9967
aV\u65d6
aV\u7f27
aV\u8a48
aV\u7fe6
aV\u954c
aV\u524e
aV\u73b8
aV\u790c
aV\u9e4c
aV\u5315
aV\u54a6
aV\u5e8b
aV\u6b92
aV\u9a9c
aV\u766f
aV\u61cb
aV\u7699
aV\u8dbf
aV\u4f7c
aV\u5edb
aV\u63b8
aV\u82ce
aV\u9557
aV\u7f04
aV\u5b6c
aV\u6092
aV\u5c9a
aV\u6f4d
aV\u87d2
aV\u53df
aV\u8f76
aV\u5e96
aV\u4e9f
aV\u9036
aV\u67d9
aV\u4f5e
aV\u7663
aV\u9c7f
aV\u6e89
aV\u9e3e
aV\u5b6a
aV\u94a1
aV\u81c3
aV\u5a29
aV\u6dd9
aV\u56ff
aV\u8941
aV\u6e1a
aV\u6b81
aV\u973e
aV\u9977
aV\u7f22
aV\u9792
aV\u4f97
aV\u9aa5
aV\u66dd
aV\u70e9
aV\u9b23
aV\u52be
aV\u897b
aV\u789c
aV\u693d
aV\u9e73
aV\u6dbf
aV\u86f9
aV\u9e49
aV\u9617
aV\u9e9d
aV\u55eb
aV\u7ab3
aV\u4fd1
aV\u556d
aV\u84d3
aV\u6654
aV\u4f25
aV\u575e
aV\u709c
aV\u7bab
aV\u8bcb
aV\u71b3
aV\u78d9
aV\u9e82
aV\u5d02
aV\u65d2
aV\u996f
aV\u908b
aV\u72f7
aV\u8bf2
aV\u9e93
aV\u7321
aV\u7812
aV\u6619
aV\u5c50
aV\u7325
aV\u5fd2
aV\u6988
aV\u88df
aV\u7efb
aV\u80c4
aV\u580b
aV\u5e7a
aV\u8087
aV\u598d
aV\u5250
aV\u84df
aV\u72fb
aV\u8c2f
aV\u7f79
aV\u5591
aV\u629f
aV\u6a84
aV\u8983
aV\u83df
aV\u839e
aV\u9f8b
aV\u998f
aV\u62f7
aV\u561a
aV\u755a
aV\u5807
aV\u810d
aV\u64e4
aV\u9bdb
aV\u7119
aV\u581e
aV\u7e9b
aV\u7a88
aV\u54c2
aV\u61d1
aV\u6d38
aV\u7230
aV\u5a40
aV\u9ac0
aV\u87fe
aV\u740a
aV\u59ec
aV\u607d
aV\u5048
aV\u680e
aV\u7cc1
aV\u85d0
aV\u55f0
aV\u92c8
aV\u7606
aV\u8e0a
aV\u612b
aV\u82eb
aV\u816d
aV\u4ede
aV\u748b
aV\u8888
aV\u6cb1
aV\u89f3
aV\u72fa
aV\u996a
aV\u50a5
aV\u69df
aV\u82dc
aV\u8171
aV\u8c19
aV\u6dc4
aV\u8d6d
aV\u85dc
aV\u4fea
aV\u5b5c
aV\u7459
aV\u9102
aV\u50ed
aV\u9f88
aV\u8fe8
aV\u868c
aV\u5a1f
aV\u7e5d
aV\u6cbd
aV\u8f90
aV\u87e0
aV\u6428
aV\u955e
aV\u8fe4
aV\u82fb
aV\u51c7
aV\u8be0
aV\u82d5
aV\u6978
aV\u8153
aV\u5208
aV\u9730
aV\u555c
aV\u5ed6
aV\u88f0
aV\u65c3
aV\u558f
aV\u81ec
aV\u6bf5
aV\u71f9
aV\u783e
aV\u6cf1
aV\u7cbc
aV\u6482
aV\u7ee6
aV\u777f
aV\u869c
aV\u5e37
aV\u8707
aV\u63b4
aV\u835f
aV\u57a6
aV\u6249
aV\u52ad
aV\u8bfc
aV\u9f89
aV\u902d
aV\u5742
aV\u9540
aV\u8913
aV\u8be9
aV\u8339
aV\u905b
aV\u607b
aV\u5533
aV\u63bc
aV\u5c59
aV\u8d63
aV\u501c
aV\u5942
aV\u86e9
aV\u9cab
aV\u75f1
aV\u93ca
aV\u59ee
aV\u9a85
aV\u5f01
aV\u9035
aV\u975b
aV\u66e6
aV\u72b7
aV\u7850
aV\u728d
aV\u7826
aV\u7f54
aV\u88f1
aV\u70b7
aV\u953a
aV\u4ff3
aV\u98d3
aV\u90b8
aV\u89de
aV\u84d6
aV\u6ddd
aV\u717a
aV\u950c
aV\u72ce
aV\u8c2e
aV\u7b4c
aV\u80f1
aV\u83f1
aV\u96bc
aV\u7b0f
aV\u62ca
aV\u631e
aV\u6248
aV\u7db7
aV\u9e36
aV\u8c82
aV\u7a39
aV\u8e14
aV\u7116
aV\u634c
aV\u51eb
aV\u7357
aV\u5a9b
aV\u7444
aV\u6c54
aV\u5197
aV\u82a1
aV\u7f07
aV\u9b1f
aV\u5a75
aV\u9004
aV\u7b1e
aV\u6ebb
aV\u6dfc
aV\u6b8d
aV\u8df9
aV\u6d63
aV\u996b
aV\u75ca
aV\u837b
aV\u992e
aV\u6eb7
aV\u59ae
aV\u6939
aV\u7672
aV\u951b
aV\u59d8
aV\u7a03
aV\u91b4
aV\u9e41
aV\u9765
aV\u636d
aV\u7ba7
aV\u4f89
aV\u80d7
aV\u59d2
aV\u8e9e
aV\u7e29
aV\u7f12
aV\u5b95
aV\u8bb5
aV\u9ee7
aV\u5c91
aV\u6456
aV\u57a0
aV\u9537
aV\u572a
aV\u87b5
aV\u9052
aV\u5526
aV\u8e42
aV\u8446
aV\u977c
aV\u6b84
aV\u988f
aV\u7094
aV\u91aa
aV\u9ca2
aV\u543d
aV\u6b43
aV\u5785
aV\u7080
aV\u9c9e
aV\u8ba6
aV\u7256
aV\u7ff3
aV\u7743
aV\u88fe
aV\u9c87
aV\u5457
aV\u5e5b
aV\u9a9e
aV\u8e8f
aV\u5e44
aV\u9509
aV\u86d4
aV\u779f
aV\u6e25
aV\u52f0
aV\u81e7
aV\u8c20
aV\u867c
aV\u8d61
aV\u4e8d
aV\u7f2c
aV\u877c
aV\u5f57
aV\u9a83
aV\u7630
aV\u8393
aV\u7ec1
aV\u78c5
aV\u989a
aV\u6f4b
aV\u6edf
aV\u80eb
aV\u85ae
aV\u9021
aV\u8543
aV\u914b
aV\u5eea
aV\u9a7d
aV\u6987
aV\u82c1
aV\u6c4a
aV\u9ebe
aV\u890a
aV\u5914
aV\u870a
aV\u8e84
aV\u94be
aV\u8c5a
aV\u67c8
aV\u77bd
aV\u8deb
aV\u4fac
aV\u7ae3
aV\u6b59
aV\u9ccd
aV\u7452
aV\u52ac
aV\u6120
aV\u9b47
aV\u9a9b
aV\u4fa9
aV\u63f6
aV\u84ba
aV\u9602
aV\u532e
aV\u598a
aV\u92ae
aV\u7901
aV\u9980
aV\u7574
aV\u75b1
aV\u6215
aV\u714a
aV\u5d82
aV\u5cac
aV\u5fd6
aV\u61d4
aV\u652e
aV\u6217
aV\u832d
aV\u67da
aV\u6dde
aV\u8c89
aV\u7be6
aV\u8703
aV\u5bd0
aV\u98d2
aV\u8385
aV\u8e9c
aV\u6600
aV\u6c5c
aV\u960b
aV\u55cc
aV\u6aac
aV\u87ca
aV\u6841
aV\u9cce
aV\u67de
aV\u87b3
aV\u9ae1
aV\u7768
aV\u84ca
aV\u8803
aV\u9ca0
aV\u82f4
aV\u7168
aV\u8235
aV\u96d2
aV\u9963
aV\u8e40
aV\u6308
aV\u5924
aV\u6cd3
aV\u4faa
aV\u7317
aV\u951a
aV\u5d4a
aV\u8fe9
aV\u86f8
aV\u9485
aV\u7504
aV\u5501
aV\u599e
aV\u5cb1
aV\u7b08
aV\u97ab
aV\u6a3e
aV\u5601
aV\u75ac
aV\u6ee6
aV\u6151
aV\u7f2e
aV\u5709
aV\u81fc
aV\u9e57
aV\u986e
aV\u949c
aV\u88a4
aV\u5bee
aV\u76a4
aV\u9a92
aV\u6603
aV\u9b51
aV\u6a5b
aV\u60ec
aV\u6989
aV\u5c90
aV\u544b
aV\u6657
aV\u6c5b
aV\u7c91
aV\u7a95
aV\u8158
aV\u6e72
aV\u9e92
aV\u5421
aV\u9f10
aV\u8d5c
aV\u77a0
aV\u9cb8
aV\u55be
aV\u9a77
aV\u98a1
aV\u835c
aV\u9c8e
aV\u7513
aV\u8bac
aV\u7391
aV\u7fce
aV\u6c85
aV\u90d3
aV\u6fc2
aV\u869d
aV\u59a3
aV\u6998
aV\u5d4b
aV\u9ee2
aV\u7ee1
aV\u9a8e
aV\u8e41
aV\u5830
aV\u5202
aV\u6c7e
aV\u6a3d
aV\u82cb
aV\u7b31
aV\u9ab0
aV\u6d54
aV\u9082
aV\u5a9f
aV\u9541
aV\u7889
aV\u84a1
aV\u79b3
aV\u674c
aV\u83cf
aV\u9a8a
aV\u7c9c
aV\u8bd3
aV\u8dbc
aV\u6126
aV\u7735
aV\u8568
aV\u8db8
aV\u623d
aV\u873e
aV\u69b7
aV\u782d
aV\u95f1
aV\u8627
aV\u5647
aV\u7431
aV\u7ec2
aV\u8c0c
aV\u8d4d
aV\u5ad8
aV\u6c22
aV\u8368
aV\u70ca
aV\u877b
aV\u5f95
aV\u98d0
aV\u9161
aV\u5463
aV\u7ce8
aV\u4f5f
aV\u948f
aV\u4eb3
aV\u5cbf
aV\u98e7
aV\u6484
aV\u9cd4
aV\u74e4
aV\u87ee
aV\u65ef
aV\u74ba
aV\u8db1
aV\u866c
aV\u8f87
aV\u9ebd
aV\u6e1d
aV\u9a93
aV\u79d5
aV\u63ae
aV\u9124
aV\u6106
aV\u8146
aV\u7f25
aV\u8d59
aV\u6fef
aV\u5454
aV\u90e7
aV\u9c8b
aV\u7566
aV\u9f0d
aV\u9169
aV\u4ec2
aV\u5cb7
aV\u5db7
aV\u6ec1
aV\u7e9f
aV\u56af
aV\u9cdf
aV\u4f7e
aV\u7ec9
aV\u64ba
aV\u5bf0
aV\u5581
aV\u9e87
aV\u6ea7
aV\u5fdd
aV\u8e7c
aV\u870d
aV\u668c
aV\u94c0
aV\u868b
aV\u4ebb
aV\u6fd1
aV\u902f
aV\u73ae
aV\u8378
aV\u7780
aV\u9005
aV\u67e0
aV\u80fa
aV\u90db
aV\u731d
aV\u760a
aV\u8f8f
aV\u59ab
aV\u837c
aV\u627d
aV\u5b16
aV\u603c
aV\u5c44
aV\u7cef
aV\u5535
aV\u4fce
aV\u9f83
aV\u9a96
aV\u6f62
aV\u8315
aV\u8df6
aV\u81fe
aV\u705e
aV\u6f8c
aV\u6c21
aV\u853b
aV\u7747
aV\u914a
aV\u63be
aV\u8369
aV\u5f40
aV\u82fe
aV\u81c1
aV\u5423
aV\u65ee
aV\u4ef5
aV\u6f74
aV\u9990
aV\u8c30
aV\u4f32
aV\u82ef
aV\u5e27
aV\u8c06
aV\u9894
aV\u78d4
aV\u96e0
aV\u7b93
aV\u4f1b
aV\u5d27
aV\u67b5
aV\u54d3
aV\u60b1
aV\u6cee
aV\u69ad
aV\u988c
aV\u6c2f
aV\u9753
aV\u829f
aV\u8f6d
aV\u53a9
aV\u7228
aV\u5a23
aV\u5155
aV\u9ee0
aV\u7b78
aV\u5651
aV\u5055
aV\u71d4
aV\u577b
aV\u73ad
aV\u7c9e
aV\u50d6
aV\u6cfe
aV\u752f
aV\u52d6
aV\u77ad
aV\u7f1c
aV\u8bff
aV\u834f
aV\u6a28
aV\u7edb
aV\u915a
aV\u848c
aV\u4fe6
aV\u712f
aV\u7b33
aV\u9cb2
aV\u6715
aV\u7f9a
aV\u5d58
aV\u6615
aV\u5b17
aV\u75c8
aV\u6fb9
aV\u754a
aV\u9f19
aV\u8012
aV\u8629
aV\u9e2c
aV\u9088
aV\u97b2
aV\u7787
aV\u9f2c
aV\u5958
aV\u961d
aV\u8be4
aV\u7487
aV\u87d1
aV\u7905
aV\u7f2b
aV\u82be
aV\u74f2
aV\u8785
aV\u5d69
aV\u606b
aV\u7f14
aV\u748e
aV\u8340
aV\u8872
aV\u6445
aV\u7a51
aV\u8244
aV\u94a0
aV\u9a95
aV\u656b
aV\u636f
aV\u9995
aV\u7b3e
aV\u75e2
aV\u6d5c
aV\u6e86
aV\u5e11
aV\u6641
aV\u6d2e
aV\u753e
aV\u83dd
aV\u94a8
aV\u8bc2
aV\u7ea5
aV\u9026
aV\u8f44
aV\u7292
aV\u5a20
aV\u77a9
aV\u94bf
aV\u621b
aV\u5793
aV\u96e9
aV\u70fd
aV\u7f23
aV\u9e39
aV\u5028
aV\u77fd
aV\u9a7a
aV\u577c
aV\u55d0
aV\u9791
aV\u7f36
aV\u95fc
aV\u7704
aV\u8222
aV\u572f
aV\u7c1f
aV\u88fc
aV\u8c2a
aV\u82e1
aV\u8e7e
aV\u83a0
aV\u9157
aV\u56d7
aV\u840b
aV\u726f
aV\u887e
aV\u8e3d
aV\u736f
aV\u817a
aV\u7145
aV\u54ad
aV\u9e31
aV\u9f85
aV\u5287
aV\u965f
aV\u6960
aV\u5fc4
aV\u55b5
aV\u586c
aV\u7708
aV\u741b
aV\u8ae5
aV\u5a05
aV\u88ce
aV\u541c
aV\u9572
aV\u9a98
aV\u82a8
aV\u8bce
aV\u73de
aV\u8599
aV\u78bb
aV\u881b
aV\u8d49
aV\u6e5f
aV\u866f
aV\u7950
aV\u76e5
aV\u8317
aV\u9e55
aV\u7f7e
aV\u740f
aV\u826b
aV\u7c95
aV\u89c7
aV\u8082
aV\u750f
aV\u5ebe
aV\u6ac6
aV\u8e49
aV\u9536
aV\u7cbb
aV\u73e5
aV\u9264
aV\u7c26
aV\u9560
aV\u5c66
aV\u4fdc
aV\u7f91
aV\u90cf
aV\u7be9
aV\u88b4
aV\u954d
aV\u8c32
aV\u86d6
aV\u5ca3
aV\u70bb
aV\u953e
aV\u4fc5
aV\u57d5
aV\u7654
aV\u7fe5
aV\u9468
aV\u8186
aV\u86b4
aV\u6bc2
aV\u665f
aV\u8473
aV\u9e3a
aV\u6bec
aV\u50a7
aV\u752a
aV\u9acb
aV\u9ccf
aV\u54ff
aV\u6e98
aV\u821b
aV\u76a8
aV\u82b0
aV\u8bd6
aV\u5ce4
aV\u9514
aV\u51a7
aV\u60dd
aV\u53fb
aV\u8882
aV\u831b
aV\u86de
aV\u67dd
aV\u9068
aV\u696e
aV\u65c6
aV\u8dd6
aV\u7839
aV\u5be4
aV\u933e
aV\u6844
aV\u7c4c
aV\u7650
aV\u5925
aV\u86b0
aV\u89da
aV\u5412
aV\u553c
aV\u7750
aV\u727e
aV\u7f0b
aV\u6631
aV\u6dec
aV\u9604
aV\u771a
aV\u86cf
aV\u6e54
aV\u5156
aV\u66a4
aV\u8277
aV\u6222
aV\u8160
aV\u4f94
aV\u88bc
aV\u93d6
aV\u6c2a
aV\u8236
aV\u8564
aV\u766e
aV\u5d06
aV\u78b3
aV\u5556
aV\u946b
aV\u9e32
aV\u5b34
aV\u6339
aV\u9b49
aV\u6dd2
aV\u906f
aV\u7085
aV\u72d9
aV\u55c9
aV\u83fd
aV\u5880
aV\u6d39
aV\u9549
aV\u7faf
aV\u75b3
aV\u8e3a
aV\u89cb
aV\u9aed
aV\u97b4
aV\u83bc
aV\u94de
aV\u9573
aV\u9e58
aV\u7172
aV\u95f5
aV\u80bc
aV\u6067
aV\u74f4
aV\u592c
aV\u66e9
aV\u7b85
aV\u4fcd
aV\u69ce
aV\u745b
aV\u5cc1
aV\u94f1
aV\u5b84
aV\u7707
aV\u731e
aV\u535e
aV\u7b6e
aV\u7407
aV\u96b0
aV\u6b39
aV\u9e6b
aV\u8114
aV\u9a99
aV\u82a9
aV\u73b3
aV\u6313
aV\u98da
aV\u86e6
aV\u80ea
aV\u94e3
aV\u560f
aV\u86c4
aV\u75a3
aV\u8605
aV\u98a6
aV\u71e0
aV\u8db5
aV\u6f5e
aV\u70f7
aV\u822b
aV\u9037
aV\u80ad
aV\u8201
aV\u681d
aV\u9b3b
aV\u9e69
aV\u87ad
aV\u6c30
aV\u77cd
aV\u540b
aV\u5476
aV\u530f
aV\u889e
aV\u754b
aV\u7953
aV\u704f
aV\u656d
aV\u5e91
aV\u5676
aV\u6343
aV\u646d
aV\u670a
aV\u86df
aV\u7166
aV\u54a8
aV\u660a
aV\u86b5
aV\u9615
aV\u9515
aV\u8fee
aV\u6206
aV\u5ce5
aV\u5c7a
aV\u75ff
aV\u9878
aV\u7490
aV\u8c2b
aV\u94d0
aV\u79a3
aV\u5a7a
aV\u7f8c
aV\u4f57
aV\u86f2
aV\u9e8b
aV\u82c8
aV\u9ab9
aV\u7ccd
aV\u5f0b
aV\u85b9
aV\u8478
aV\u6eff
aV\u8765
aV\u736d
aV\u799b
aV\u6538
aV\u6c29
aV\u7b47
aV\u90d7
aV\u74ef
aV\u94c4
aV\u50ec
aV\u7b71
aV\u85fa
aV\u5216
aV\u6221
aV\u966c
aV\u72ef
aV\u7e47
aV\u5889
aV\u9642
aV\u9496
aV\u932f
aV\u8bd4
aV\u808f
aV\u919a
aV\u7f71
aV\u7934
aV\u9e46
aV\u658c
aV\u6994
aV\u88aa
aV\u89d4
aV\u5981
aV\u6d0e
aV\u94c8
aV\u79eb
aV\u782c
aV\u823b
aV\u7371
aV\u8793
aV\u561e
aV\u80bd
aV\u5107
aV\u786d
aV\u5cab
aV\u7430
aV\u87bd
aV\u934a
aV\u7b5a
aV\u9e6c
aV\u6294
aV\u83aa
aV\u5f2d
aV\u84d0
aV\u6053
aV\u6ce0
aV\u8169
aV\u6979
aV\u56dd
aV\u8411
aV\u6153
aV\u83d4
aV\u8069
aV\u67d1
aV\u4f76
aV\u8e61
aV\u6fe0
aV\u647d
aV\u5810
aV\u8297
aV\u94a3
aV\u69b1
aV\u5d3e
aV\u754e
aV\u558e
aV\u6d9e
aV\u602b
aV\u78d0
aV\u74b9
aV\u9538
aV\u8bdc
aV\u9162
aV\u6c74
aV\u787c
aV\u94e4
aV\u69f2
aV\u812c
aV\u6042
aV\u8ff3
aV\u9e29
aV\u6f33
aV\u65c4
aV\u954f
aV\u5cea
aV\u560c
aV\u7893
aV\u85c1
aV\u8556
aV\u8284
aV\u9c90
aV\u8e47
aV\u924f
aV\u79fe
aV\u6c46
aV\u88c9
aV\u83ef
aV\u7178
aV\u6809
aV\u508e
aV\u9efb
aV\u8c47
aV\u7ed0
aV\u90ba
aV\u83d8
aV\u9166
aV\u52bc
aV\u763f
aV\u7f65
aV\u94e8
aV\u879f
aV\u8e5a
aV\u73e7
aV\u89eb
aV\u9190
aV\u8347
aV\u8dd8
aV\u956a
aV\u86f3
aV\u6fee
aV\u917d
aV\u5310
aV\u6c05
aV\u584d
aV\u73d0
aV\u5ba5
aV\u8234
aV\u936a
aV\u9490
aV\u7315
aV\u6a2f
aV\u723f
aV\u8406
aV\u9612
aV\u9938
aV\u8188
aV\u6d2b
aV\u9cb6
aV\u9aba
aV\u557b
aV\u9512
aV\u6a18
aV\u809f
aV\u67b1
aV\u5864
aV\u9766
aV\u916a
aV\u88ef
aV\u5ab8
aV\u7f61
aV\u567b
aV\u89ef
aV\u7ca2
aV\u7946
aV\u96ef
aV\u7bf2
aV\u5558
aV\u736c
aV\u781c
aV\u883c
aV\u93c1
aV\u94ef
aV\u7301
aV\u5182
aV\u8e53
aV\u6cd4
aV\u5f08
aV\u80cd
aV\u887d
aV\u9c9b
aV\u7596
aV\u91ae
aV\u5541
aV\u9edc
aV\u8662
aV\u8dfb
aV\u5d1b
aV\u4f27
aV\u9143
aV\u989f
aV\u8238
aV\u952c
aV\u7fdb
aV\u6d7c
aV\u86b6
aV\u539d
aV\u5d2e
aV\u77b5
aV\u876a
aV\u9880
aV\u7d59
aV\u9cd8
aV\u837d
aV\u9e5a
aV\u6b37
aV\u6861
aV\u827d
aV\u7f59
aV\u6d65
aV\u7fee
aV\u817d
aV\u8862
aV\u7b2b
aV\u5649
aV\u7eee
aV\u6cfa
aV\u863c
aV\u7ed7
aV\u5f82
aV\u7959
aV\u5ada
aV\u843c
aV\u81d5
aV\u7cd7
aV\u8fb6
aV\u603f
aV\u83be
aV\u86d1
aV\u73c8
aV\u871a
aV\u9176
aV\u900b
aV\u530d
aV\u9463
aV\u8d48
aV\u8b07
aV\u52a2
aV\u8585
aV\u918d
aV\u82ab
aV\u876e
aV\u7827
aV\u9ee9
aV\u7f68
aV\u6cf5
aV\u950f
aV\u8c35
aV\u80c2
aV\u7ae6
aV\u760c
aV\u7a14
aV\u75a1
aV\u6ec7
aV\u5c3b
aV\u5ad4
aV\u9e67
aV\u6c86
aV\u6441
aV\u89ca
aV\u87ab
aV\u9954
aV\u4f70
aV\u9654
aV\u6b82
aV\u81c6
aV\u686b
aV\u80f0
aV\u7110
aV\u8816
aV\u5011
aV\u5b37
aV\u69ed
aV\u809c
aV\u9495
aV\u5d24
aV\u5eb9
aV\u7b60
aV\u7fb8
aV\u553f
aV\u835b
aV\u523f
aV\u75e6
aV\u8c16
aV\u9e22
aV\u8d40
aV\u59e3
aV\u886e
aV\u7610
aV\u5293
aV\u7ecb
aV\u8572
aV\u9c8d
aV\u9095
aV\u5ca2
aV\u67b0
aV\u7bb8
aV\u67a5
aV\u8de9
aV\u9498
aV\u9016
aV\u961a
aV\u7f1f
aV\u4e93
aV\u94af
aV\u83e1
aV\u6260
aV\u840f
aV\u68bc
aV\u7f08
aV\u762e
aV\u9544
aV\u8276
aV\u847a
aV\u55c4
aV\u6c55
aV\u56ee
aV\u9516
aV\u68d3
aV\u8813
aV\u82a4
aV\u7949
aV\u5f87
aV\u868d
aV\u981e
aV\u683e
aV\u830f
aV\u7bb4
aV\u7441
aV\u9185
aV\u8e50
aV\u9f31
aV\u7d5c
aV\u8d67
aV\u951e
aV\u8fe5
aV\u7aac
aV\u9131
aV\u76b4
aV\u7f45
aV\u9ac2
aV\u82d2
aV\u96b3
aV\u86a8
aV\u5fee
aV\u8291
aV\u709d
aV\u5733
aV\u6e0c
aV\u911e
aV\u5fad
aV\u9607
aV\u9531
aV\u89ce
aV\u9672
aV\u68f9
aV\u7f17
aV\u751b
aV\u8839
aV\u6d4d
aV\u965b
aV\u4ff6
aV\u84fc
aV\u7432
aV\u83a8
aV\u592f
aV\u7845
at.